; ModuleID = 'D:\cd\project\project\outputs\uploads\edebeacd_progcpp.cpp'
source_filename = "D:\\cd\\project\\project\\outputs\\uploads\\edebeacd_progcpp.cpp"
target datalayout = "e-m:w-p270:32:32-p271:32:32-p272:64:64-i64:64-i128:128-f80:128-n8:16:32:64-S128"
target triple = "x86_64-pc-windows-msvc19.51.36246"

%"class.std::basic_ostream" = type { ptr, [4 x i8], i32, %"class.std::basic_ios" }
%"class.std::basic_ios" = type { %"class.std::ios_base", ptr, ptr, i8 }
%"class.std::ios_base" = type { ptr, i64, i32, i32, i32, i64, i64, ptr, ptr, ptr }
%"class.std::basic_istream" = type { ptr, i64, [4 x i8], i32, %"class.std::basic_ios" }
%"class.std::locale::id" = type { i64 }
%rtti.TypeDescriptor30 = type { ptr, ptr, [31 x i8] }
%eh.CatchableType = type { i32, i32, i32, i32, i32, i32, i32 }
%rtti.TypeDescriptor19 = type { ptr, ptr, [20 x i8] }
%eh.CatchableTypeArray.3 = type { i32, [3 x i32] }
%eh.ThrowInfo = type { i32, i32, i32, i32 }
%rtti.CompleteObjectLocator = type { i32, i32, i32, i32, i32, i32 }
%rtti.ClassHierarchyDescriptor = type { i32, i32, i32, i32 }
%rtti.BaseClassDescriptor = type { i32, i32, i32, i32, i32, i32, i32 }
%rtti.TypeDescriptor26 = type { ptr, ptr, [27 x i8] }
%rtti.TypeDescriptor22 = type { ptr, ptr, [23 x i8] }
%rtti.TypeDescriptor23 = type { ptr, ptr, [24 x i8] }
%eh.CatchableTypeArray.5 = type { i32, [5 x i32] }
%"union.std::error_category::_Addr_storage" = type { i64 }
%rtti.TypeDescriptor35 = type { ptr, ptr, [36 x i8] }
%rtti.TypeDescriptor24 = type { ptr, ptr, [25 x i8] }
%rtti.TypeDescriptor20 = type { ptr, ptr, [21 x i8] }
%rtti.TypeDescriptor21 = type { ptr, ptr, [22 x i8] }
%rtti.TypeDescriptor25 = type { ptr, ptr, [26 x i8] }
%rtti.TypeDescriptor31 = type { ptr, ptr, [32 x i8] }
%rtti.TypeDescriptor18 = type { ptr, ptr, [19 x i8] }
%eh.CatchableTypeArray.2 = type { i32, [2 x i32] }
%rtti.TypeDescriptor73 = type { ptr, ptr, [74 x i8] }
%"class.std::vector" = type { %"class.std::_Compressed_pair" }
%"class.std::_Compressed_pair" = type { %"class.std::_Vector_val" }
%"class.std::_Vector_val" = type { ptr, ptr, ptr }
%struct.Student = type { i32, %"class.std::basic_string", float }
%"class.std::basic_string" = type { %"class.std::_Compressed_pair.0" }
%"class.std::_Compressed_pair.0" = type { %"class.std::_String_val" }
%"class.std::_String_val" = type { %"union.std::_String_val<std::_Simple_types<char>>::_Bxty", i64, i64 }
%"union.std::_String_val<std::_Simple_types<char>>::_Bxty" = type { ptr, [8 x i8] }
%"class.std::error_code" = type { i32, ptr }
%"class.std::ios_base::failure" = type { %"class.std::system_error" }
%"class.std::system_error" = type { %"class.std::_System_error" }
%"class.std::_System_error" = type { %"class.std::runtime_error", %"class.std::error_code" }
%"class.std::runtime_error" = type { %"class.std::exception" }
%"class.std::exception" = type { ptr, %struct.__std_exception_data }
%struct.__std_exception_data = type { ptr, i8 }
%"class.std::basic_ostream<char>::sentry" = type { %"class.std::basic_ostream<char>::_Sentry_base", i8 }
%"class.std::basic_ostream<char>::_Sentry_base" = type { ptr }
%"class.std::ostreambuf_iterator" = type { i8, ptr }
%"class.std::locale" = type { [8 x i8], ptr }
%"class.std::basic_istream<char>::sentry" = type { %"class.std::basic_istream<char>::_Sentry_base", i8 }
%"class.std::basic_istream<char>::_Sentry_base" = type { ptr }
%"class.std::bad_array_new_length" = type { %"class.std::bad_alloc" }
%"class.std::bad_alloc" = type { %"class.std::exception" }
%"class.std::error_condition" = type { i32, ptr }
%"class.std::istreambuf_iterator" = type { ptr, i8, i8 }
%"class.std::_Locinfo" = type { %"class.std::_Lockit", %"class.std::_Yarn", %"class.std::_Yarn", %"class.std::_Yarn.6", %"class.std::_Yarn.6", %"class.std::_Yarn", %"class.std::_Yarn" }
%"class.std::_Lockit" = type { i32 }
%"class.std::_Yarn.6" = type { ptr, i16 }
%"class.std::_Yarn" = type { ptr, i8 }
%struct._Ctypevec = type { i32, ptr, i32, ptr }
%"class.std::bad_cast" = type { %"class.std::exception" }
%struct._Cvtvec = type { i32, i32, i32, [32 x i8] }
%"struct.std::_Tidy_guard" = type { ptr }

$"??$?6U?$char_traits@D@std@@@std@@YAAEAV?$basic_ostream@DU?$char_traits@D@std@@@0@AEAV10@PEBD@Z" = comdat any

$"??6?$basic_ostream@DU?$char_traits@D@std@@@std@@QEAAAEAV01@H@Z" = comdat any

$"??$endl@DU?$char_traits@D@std@@@std@@YAAEAV?$basic_ostream@DU?$char_traits@D@std@@@0@AEAV10@@Z" = comdat any

$"??$?5DU?$char_traits@D@std@@V?$allocator@D@1@@std@@YAAEAV?$basic_istream@DU?$char_traits@D@std@@@0@AEAV10@AEAV?$basic_string@DU?$char_traits@D@std@@V?$allocator@D@2@@0@@Z" = comdat any

$"??6?$basic_ostream@DU?$char_traits@D@std@@@std@@QEAAAEAV01@M@Z" = comdat any

$"??1Student@@QEAA@XZ" = comdat any

$"??1?$vector@UStudent@@V?$allocator@UStudent@@@std@@@std@@QEAA@XZ" = comdat any

$"??__E?id@?$num_get@DV?$istreambuf_iterator@DU?$char_traits@D@std@@@std@@@std@@2V0locale@2@A@@YAXXZ" = comdat any

$"??__E?id@?$numpunct@D@std@@2V0locale@2@A@@YAXXZ" = comdat any

$"??__E?id@?$num_put@DV?$ostreambuf_iterator@DU?$char_traits@D@std@@@std@@@std@@2V0locale@2@A@@YAXXZ" = comdat any

$"?_Xlen_string@std@@YAXXZ" = comdat any

$"?_Throw_bad_array_new_length@std@@YAXXZ" = comdat any

$"??0bad_array_new_length@std@@QEAA@AEBV01@@Z" = comdat any

$"??0bad_alloc@std@@QEAA@AEBV01@@Z" = comdat any

$"??0exception@std@@QEAA@AEBV01@@Z" = comdat any

$"?what@exception@std@@UEBAPEBDXZ" = comdat any

$"??_Gexception@std@@UEAAPEAXI@Z" = comdat any

$"??_Gbad_alloc@std@@UEAAPEAXI@Z" = comdat any

$"??_Gbad_array_new_length@std@@UEAAPEAXI@Z" = comdat any

$"??1?$basic_string@DU?$char_traits@D@std@@V?$allocator@D@2@@std@@QEAA@XZ" = comdat any

$"?setstate@?$basic_ios@DU?$char_traits@D@std@@@std@@QEAAXH_N@Z" = comdat any

$"??1sentry@?$basic_ostream@DU?$char_traits@D@std@@@std@@QEAA@XZ" = comdat any

$"?flush@?$basic_ostream@DU?$char_traits@D@std@@@std@@QEAAAEAV12@XZ" = comdat any

$"??1_Sentry_base@?$basic_ostream@DU?$char_traits@D@std@@@std@@QEAA@XZ" = comdat any

$"?make_error_code@std@@YA?AVerror_code@1@W4io_errc@1@@Z" = comdat any

$"??0failure@ios_base@std@@QEAA@PEBDAEBVerror_code@2@@Z" = comdat any

$"??0failure@ios_base@std@@QEAA@AEBV012@@Z" = comdat any

$"??0system_error@std@@QEAA@AEBV01@@Z" = comdat any

$"??0_System_error@std@@QEAA@AEBV01@@Z" = comdat any

$"??0runtime_error@std@@QEAA@AEBV01@@Z" = comdat any

$"?name@_Iostream_error_category2@std@@UEBAPEBDXZ" = comdat any

$"?message@_Iostream_error_category2@std@@UEBA?AV?$basic_string@DU?$char_traits@D@std@@V?$allocator@D@2@@2@H@Z" = comdat any

$"?default_error_condition@error_category@std@@UEBA?AVerror_condition@2@H@Z" = comdat any

$"?equivalent@error_category@std@@UEBA_NAEBVerror_code@2@H@Z" = comdat any

$"?equivalent@error_category@std@@UEBA_NHAEBVerror_condition@2@@Z" = comdat any

$"??_G_Iostream_error_category2@std@@UEAAPEAXI@Z" = comdat any

$"??0system_error@std@@QEAA@Verror_code@1@PEBD@Z" = comdat any

$"??0_System_error@std@@IEAA@Verror_code@1@AEBV?$basic_string@DU?$char_traits@D@std@@V?$allocator@D@2@@1@@Z" = comdat any

$"?_Makestr@_System_error@std@@CA?AV?$basic_string@DU?$char_traits@D@std@@V?$allocator@D@2@@2@Verror_code@2@V32@@Z" = comdat any

$"??$_Reallocate_grow_by@V<lambda_1>@?0???$_Append@D@?$basic_string@DU?$char_traits@D@std@@V?$allocator@D@2@@std@@AEAAAEAV23@QEBD_K@Z@PEBD_K@?$basic_string@DU?$char_traits@D@std@@V?$allocator@D@2@@std@@AEAAAEAV01@_KV<lambda_1>@?0???$_Append@D@01@AEAAAEAV01@QEBD0@Z@PEBD_K@Z" = comdat any

$"??_Gruntime_error@std@@UEAAPEAXI@Z" = comdat any

$"??_G_System_error@std@@UEAAPEAXI@Z" = comdat any

$"??_Gsystem_error@std@@UEAAPEAXI@Z" = comdat any

$"??_Gfailure@ios_base@std@@UEAAPEAXI@Z" = comdat any

$"?_Osfx@?$basic_ostream@DU?$char_traits@D@std@@@std@@QEAAXXZ" = comdat any

$"??$_Common_extract_with_num_get@J@?$basic_istream@DU?$char_traits@D@std@@@std@@AEAAAEAV01@AEAJ@Z" = comdat any

$"??$use_facet@V?$num_get@DV?$istreambuf_iterator@DU?$char_traits@D@std@@@std@@@std@@@std@@YAAEBV?$num_get@DV?$istreambuf_iterator@DU?$char_traits@D@std@@@std@@@0@AEBVlocale@0@@Z" = comdat any

$"??1_Sentry_base@?$basic_istream@DU?$char_traits@D@std@@@std@@QEAA@XZ" = comdat any

$"?_Ipfx@?$basic_istream@DU?$char_traits@D@std@@@std@@QEAA_N_N@Z" = comdat any

$"??$use_facet@V?$ctype@D@std@@@std@@YAAEBV?$ctype@D@0@AEBVlocale@0@@Z" = comdat any

$"?_Throw_bad_cast@std@@YAXXZ" = comdat any

$"??0_Locinfo@std@@QEAA@PEBD@Z" = comdat any

$"??1_Locinfo@std@@QEAA@XZ" = comdat any

$"?_Incref@facet@locale@std@@UEAAXXZ" = comdat any

$"?_Decref@facet@locale@std@@UEAAPEAV_Facet_base@3@XZ" = comdat any

$"?do_tolower@?$ctype@D@std@@MEBAPEBDPEADPEBD@Z" = comdat any

$"?do_tolower@?$ctype@D@std@@MEBADD@Z" = comdat any

$"?do_toupper@?$ctype@D@std@@MEBAPEBDPEADPEBD@Z" = comdat any

$"?do_toupper@?$ctype@D@std@@MEBADD@Z" = comdat any

$"?do_widen@?$ctype@D@std@@MEBAPEBDPEBD0PEAD@Z" = comdat any

$"?do_widen@?$ctype@D@std@@MEBADD@Z" = comdat any

$"?do_narrow@?$ctype@D@std@@MEBAPEBDPEBD0DPEAD@Z" = comdat any

$"?do_narrow@?$ctype@D@std@@MEBADDD@Z" = comdat any

$"??_G_Facet_base@std@@UEAAPEAXI@Z" = comdat any

$"??_Gfacet@locale@std@@MEAAPEAXI@Z" = comdat any

$"??_Gctype_base@std@@UEAAPEAXI@Z" = comdat any

$"??_G?$ctype@D@std@@MEAAPEAXI@Z" = comdat any

$"??0bad_cast@std@@QEAA@AEBV01@@Z" = comdat any

$"??1exception@std@@UEAA@XZ" = comdat any

$"??_Gbad_cast@std@@UEAAPEAXI@Z" = comdat any

$"?do_get@?$num_get@DV?$istreambuf_iterator@DU?$char_traits@D@std@@@std@@@std@@MEBA?AV?$istreambuf_iterator@DU?$char_traits@D@std@@@2@V32@0AEAVios_base@2@AEAHAEAPEAX@Z" = comdat any

$"?do_get@?$num_get@DV?$istreambuf_iterator@DU?$char_traits@D@std@@@std@@@std@@MEBA?AV?$istreambuf_iterator@DU?$char_traits@D@std@@@2@V32@0AEAVios_base@2@AEAHAEAO@Z" = comdat any

$"?do_get@?$num_get@DV?$istreambuf_iterator@DU?$char_traits@D@std@@@std@@@std@@MEBA?AV?$istreambuf_iterator@DU?$char_traits@D@std@@@2@V32@0AEAVios_base@2@AEAHAEAN@Z" = comdat any

$"?do_get@?$num_get@DV?$istreambuf_iterator@DU?$char_traits@D@std@@@std@@@std@@MEBA?AV?$istreambuf_iterator@DU?$char_traits@D@std@@@2@V32@0AEAVios_base@2@AEAHAEAM@Z" = comdat any

$"?do_get@?$num_get@DV?$istreambuf_iterator@DU?$char_traits@D@std@@@std@@@std@@MEBA?AV?$istreambuf_iterator@DU?$char_traits@D@std@@@2@V32@0AEAVios_base@2@AEAHAEA_K@Z" = comdat any

$"?do_get@?$num_get@DV?$istreambuf_iterator@DU?$char_traits@D@std@@@std@@@std@@MEBA?AV?$istreambuf_iterator@DU?$char_traits@D@std@@@2@V32@0AEAVios_base@2@AEAHAEA_J@Z" = comdat any

$"?do_get@?$num_get@DV?$istreambuf_iterator@DU?$char_traits@D@std@@@std@@@std@@MEBA?AV?$istreambuf_iterator@DU?$char_traits@D@std@@@2@V32@0AEAVios_base@2@AEAHAEAK@Z" = comdat any

$"?do_get@?$num_get@DV?$istreambuf_iterator@DU?$char_traits@D@std@@@std@@@std@@MEBA?AV?$istreambuf_iterator@DU?$char_traits@D@std@@@2@V32@0AEAVios_base@2@AEAHAEAJ@Z" = comdat any

$"?do_get@?$num_get@DV?$istreambuf_iterator@DU?$char_traits@D@std@@@std@@@std@@MEBA?AV?$istreambuf_iterator@DU?$char_traits@D@std@@@2@V32@0AEAVios_base@2@AEAHAEAI@Z" = comdat any

$"?do_get@?$num_get@DV?$istreambuf_iterator@DU?$char_traits@D@std@@@std@@@std@@MEBA?AV?$istreambuf_iterator@DU?$char_traits@D@std@@@2@V32@0AEAVios_base@2@AEAHAEAG@Z" = comdat any

$"?do_get@?$num_get@DV?$istreambuf_iterator@DU?$char_traits@D@std@@@std@@@std@@MEBA?AV?$istreambuf_iterator@DU?$char_traits@D@std@@@2@V32@0AEAVios_base@2@AEAHAEA_N@Z" = comdat any

$"??_G?$num_get@DV?$istreambuf_iterator@DU?$char_traits@D@std@@@std@@@std@@MEAAPEAXI@Z" = comdat any

$"??$_Parse_int_with_locale@$0A@@?$num_get@DV?$istreambuf_iterator@DU?$char_traits@D@std@@@std@@@std@@CA?AU_Num_get_parse_result@1@QEADAEAV?$istreambuf_iterator@DU?$char_traits@D@std@@@1@1HAEBVlocale@1@@Z" = comdat any

$"??$use_facet@V?$numpunct@D@std@@@std@@YAAEBV?$numpunct@D@0@AEBVlocale@0@@Z" = comdat any

$"?_Getcat@?$numpunct@D@std@@SA_KPEAPEBVfacet@locale@2@PEBV42@@Z" = comdat any

$"?_Init@?$numpunct@D@std@@IEAAXAEBV_Locinfo@2@_N@Z" = comdat any

$"?do_decimal_point@?$numpunct@D@std@@MEBADXZ" = comdat any

$"?do_thousands_sep@?$numpunct@D@std@@MEBADXZ" = comdat any

$"?do_grouping@?$numpunct@D@std@@MEBA?AV?$basic_string@DU?$char_traits@D@std@@V?$allocator@D@2@@2@XZ" = comdat any

$"?do_falsename@?$numpunct@D@std@@MEBA?AV?$basic_string@DU?$char_traits@D@std@@V?$allocator@D@2@@2@XZ" = comdat any

$"?do_truename@?$numpunct@D@std@@MEBA?AV?$basic_string@DU?$char_traits@D@std@@V?$allocator@D@2@@2@XZ" = comdat any

$"??1?$_Tidy_guard@V?$numpunct@D@std@@@std@@QEAA@XZ" = comdat any

$"??_G?$numpunct@D@std@@MEAAPEAXI@Z" = comdat any

$"??$_Reallocate_grow_by@V<lambda_1>@?0??push_back@?$basic_string@DU?$char_traits@D@std@@V?$allocator@D@2@@std@@QEAAXD@Z@D@?$basic_string@DU?$char_traits@D@std@@V?$allocator@D@2@@std@@AEAAAEAV01@_KV<lambda_1>@?0??push_back@01@QEAAXD@Z@D@Z" = comdat any

$"?equal@?$istreambuf_iterator@DU?$char_traits@D@std@@@std@@QEBA_NAEBV12@@Z" = comdat any

$"??$_Parse_fp_with_locale@$0A@@?$num_get@DV?$istreambuf_iterator@DU?$char_traits@D@std@@@std@@@std@@CA?AU_Num_get_parse_result@1@QEADHAEAV?$istreambuf_iterator@DU?$char_traits@D@std@@@1@1AEBVlocale@1@@Z" = comdat any

$"??$_Getloctxt@V?$istreambuf_iterator@DU?$char_traits@D@std@@@std@@D@std@@YAHAEAV?$istreambuf_iterator@DU?$char_traits@D@std@@@0@0_KPEBDW4_Case_sensitive@0@@Z" = comdat any

$"?_Xlength@?$vector@UStudent@@V?$allocator@UStudent@@@std@@@std@@CAXXZ" = comdat any

$"??$use_facet@V?$num_put@DV?$ostreambuf_iterator@DU?$char_traits@D@std@@@std@@@std@@@std@@YAAEBV?$num_put@DV?$ostreambuf_iterator@DU?$char_traits@D@std@@@std@@@0@AEBVlocale@0@@Z" = comdat any

$"?do_put@?$num_put@DV?$ostreambuf_iterator@DU?$char_traits@D@std@@@std@@@std@@MEBA?AV?$ostreambuf_iterator@DU?$char_traits@D@std@@@2@V32@AEAVios_base@2@DPEBX@Z" = comdat any

$"?do_put@?$num_put@DV?$ostreambuf_iterator@DU?$char_traits@D@std@@@std@@@std@@MEBA?AV?$ostreambuf_iterator@DU?$char_traits@D@std@@@2@V32@AEAVios_base@2@DO@Z" = comdat any

$"?do_put@?$num_put@DV?$ostreambuf_iterator@DU?$char_traits@D@std@@@std@@@std@@MEBA?AV?$ostreambuf_iterator@DU?$char_traits@D@std@@@2@V32@AEAVios_base@2@DN@Z" = comdat any

$"?do_put@?$num_put@DV?$ostreambuf_iterator@DU?$char_traits@D@std@@@std@@@std@@MEBA?AV?$ostreambuf_iterator@DU?$char_traits@D@std@@@2@V32@AEAVios_base@2@D_K@Z" = comdat any

$"?do_put@?$num_put@DV?$ostreambuf_iterator@DU?$char_traits@D@std@@@std@@@std@@MEBA?AV?$ostreambuf_iterator@DU?$char_traits@D@std@@@2@V32@AEAVios_base@2@D_J@Z" = comdat any

$"?do_put@?$num_put@DV?$ostreambuf_iterator@DU?$char_traits@D@std@@@std@@@std@@MEBA?AV?$ostreambuf_iterator@DU?$char_traits@D@std@@@2@V32@AEAVios_base@2@DK@Z" = comdat any

$"?do_put@?$num_put@DV?$ostreambuf_iterator@DU?$char_traits@D@std@@@std@@@std@@MEBA?AV?$ostreambuf_iterator@DU?$char_traits@D@std@@@2@V32@AEAVios_base@2@DJ@Z" = comdat any

$"?do_put@?$num_put@DV?$ostreambuf_iterator@DU?$char_traits@D@std@@@std@@@std@@MEBA?AV?$ostreambuf_iterator@DU?$char_traits@D@std@@@2@V32@AEAVios_base@2@D_N@Z" = comdat any

$"??_G?$num_put@DV?$ostreambuf_iterator@DU?$char_traits@D@std@@@std@@@std@@MEAAPEAXI@Z" = comdat any

$sprintf_s = comdat any

$"?_Iput@?$num_put@DV?$ostreambuf_iterator@DU?$char_traits@D@std@@@std@@@std@@AEBA?AV?$ostreambuf_iterator@DU?$char_traits@D@std@@@2@V32@AEAVios_base@2@DPEAD_K@Z" = comdat any

$__local_stdio_printf_options = comdat any

$"??$_Reallocate_grow_by@V<lambda_1>@?0??insert@?$basic_string@DU?$char_traits@D@std@@V?$allocator@D@2@@std@@QEAAAEAV34@_K0D@Z@_K_KD@?$basic_string@DU?$char_traits@D@std@@V?$allocator@D@2@@std@@AEAAAEAV01@_KV<lambda_1>@?0??insert@01@QEAAAEAV01@00D@Z@_K2D@Z" = comdat any

$"?_Xran@?$_String_val@U?$_Simple_types@D@std@@@std@@SAXXZ" = comdat any

$"??$_Fput_v3@$0A@@?$num_put@DV?$ostreambuf_iterator@DU?$char_traits@D@std@@@std@@@std@@AEBA?AV?$ostreambuf_iterator@DU?$char_traits@D@std@@@1@V21@AEAVios_base@1@DPEBD_K_N@Z" = comdat any

$"??$_Reallocate_grow_by@V<lambda_1>@?0??append@?$basic_string@DU?$char_traits@D@std@@V?$allocator@D@2@@std@@QEAAAEAV34@_KD@Z@_KD@?$basic_string@DU?$char_traits@D@std@@V?$allocator@D@2@@std@@AEAAAEAV01@_KV<lambda_1>@?0??append@01@QEAAAEAV01@0D@Z@_KD@Z" = comdat any

$"?put@?$basic_ostream@DU?$char_traits@D@std@@@std@@QEAAAEAV12@D@Z" = comdat any

$"??$_Common_extract_with_num_get@M@?$basic_istream@DU?$char_traits@D@std@@@std@@AEAAAEAV01@AEAM@Z" = comdat any

$"??$_Insert_string@DU?$char_traits@D@std@@_K@std@@YAAEAV?$basic_ostream@DU?$char_traits@D@std@@@0@AEAV10@QEBD_K@Z" = comdat any

$_Avx2WmemEnabledWeakValue = comdat any

$"??_C@_0BL@BHNAENJN@Enter?5number?5of?5students?3?5?$AA@" = comdat any

$"??_C@_09JPAMLHK@?6Student?5?$AA@" = comdat any

$"??_C@_04MEDALJFE@ID?3?5?$AA@" = comdat any

$"??_C@_06GECNACHD@Name?3?5?$AA@" = comdat any

$"??_C@_07GIHOBBPL@Marks?3?5?$AA@" = comdat any

$"??_C@_0BC@MKJAKPKP@?6Average?5Marks?5?$DN?5?$AA@" = comdat any

$"??_C@_09IJJPGACB@?6Topper?3?6?$AA@" = comdat any

$"??_C@_01CLKCMJKC@?5?$AA@" = comdat any

$"??_C@_0P@FBBLEHHE@?6Sorted?5List?3?6?$AA@" = comdat any

$"?id@?$num_get@DV?$istreambuf_iterator@DU?$char_traits@D@std@@@std@@@std@@2V0locale@2@A" = comdat any

$"?id@?$numpunct@D@std@@2V0locale@2@A" = comdat any

$"?id@?$num_put@DV?$ostreambuf_iterator@DU?$char_traits@D@std@@@std@@@std@@2V0locale@2@A" = comdat any

$"??_C@_0BA@JFNIOLAK@string?5too?5long?$AA@" = comdat any

$"??_R0?AVbad_array_new_length@std@@@8" = comdat any

$"_CT??_R0?AVbad_array_new_length@std@@@8??0bad_array_new_length@std@@QEAA@AEBV01@@Z24" = comdat any

$"??_R0?AVbad_alloc@std@@@8" = comdat any

$"_CT??_R0?AVbad_alloc@std@@@8??0bad_alloc@std@@QEAA@AEBV01@@Z24" = comdat any

$"??_R0?AVexception@std@@@8" = comdat any

$"_CT??_R0?AVexception@std@@@8??0exception@std@@QEAA@AEBV01@@Z24" = comdat any

$"_CTA3?AVbad_array_new_length@std@@" = comdat any

$"_TI3?AVbad_array_new_length@std@@" = comdat any

$"??_C@_0BF@KINCDENJ@bad?5array?5new?5length?$AA@" = comdat any

$"??_7bad_array_new_length@std@@6B@" = comdat largest

$"??_R4bad_array_new_length@std@@6B@" = comdat any

$"??_R3bad_array_new_length@std@@8" = comdat any

$"??_R2bad_array_new_length@std@@8" = comdat any

$"??_R1A@?0A@EA@bad_array_new_length@std@@8" = comdat any

$"??_R1A@?0A@EA@bad_alloc@std@@8" = comdat any

$"??_R3bad_alloc@std@@8" = comdat any

$"??_R2bad_alloc@std@@8" = comdat any

$"??_R1A@?0A@EA@exception@std@@8" = comdat any

$"??_R3exception@std@@8" = comdat any

$"??_R2exception@std@@8" = comdat any

$"??_7bad_alloc@std@@6B@" = comdat largest

$"??_R4bad_alloc@std@@6B@" = comdat any

$"??_7exception@std@@6B@" = comdat largest

$"??_R4exception@std@@6B@" = comdat any

$"??_C@_0BC@EOODALEL@Unknown?5exception?$AA@" = comdat any

$"??_C@_0BF@PHHKMMFD@ios_base?3?3badbit?5set?$AA@" = comdat any

$"??_C@_0BG@FMKFHCIL@ios_base?3?3failbit?5set?$AA@" = comdat any

$"??_C@_0BF@OOHOMBOF@ios_base?3?3eofbit?5set?$AA@" = comdat any

$"??_R0?AVfailure@ios_base@std@@@8" = comdat any

$"_CT??_R0?AVfailure@ios_base@std@@@8??0failure@ios_base@std@@QEAA@AEBV012@@Z40" = comdat any

$"??_R0?AVsystem_error@std@@@8" = comdat any

$"_CT??_R0?AVsystem_error@std@@@8??0system_error@std@@QEAA@AEBV01@@Z40" = comdat any

$"??_R0?AV_System_error@std@@@8" = comdat any

$"_CT??_R0?AV_System_error@std@@@8??0_System_error@std@@QEAA@AEBV01@@Z40" = comdat any

$"??_R0?AVruntime_error@std@@@8" = comdat any

$"_CT??_R0?AVruntime_error@std@@@8??0runtime_error@std@@QEAA@AEBV01@@Z24" = comdat any

$"_CTA5?AVfailure@ios_base@std@@" = comdat any

$"_TI5?AVfailure@ios_base@std@@" = comdat any

$"?_Static@?1???$_Immortalize_memcpy_image@V_Iostream_error_category2@std@@@std@@YAAEBV_Iostream_error_category2@1@XZ@4V21@A" = comdat any

$"??_7_Iostream_error_category2@std@@6B@" = comdat largest

$"?$TSS0@?1???$_Immortalize_memcpy_image@V_Iostream_error_category2@std@@@std@@YAAEBV_Iostream_error_category2@1@XZ@4HA" = comdat any

$"??_R4_Iostream_error_category2@std@@6B@" = comdat any

$"??_R0?AV_Iostream_error_category2@std@@@8" = comdat any

$"??_R3_Iostream_error_category2@std@@8" = comdat any

$"??_R2_Iostream_error_category2@std@@8" = comdat any

$"??_R1A@?0A@EA@_Iostream_error_category2@std@@8" = comdat any

$"??_R1A@?0A@EA@error_category@std@@8" = comdat any

$"??_R0?AVerror_category@std@@@8" = comdat any

$"??_R3error_category@std@@8" = comdat any

$"??_R2error_category@std@@8" = comdat any

$"??_C@_08LLGCOLLL@iostream?$AA@" = comdat any

$"?_Iostream_error@?4??message@_Iostream_error_category2@std@@UEBA?AV?$basic_string@DU?$char_traits@D@std@@V?$allocator@D@2@@3@H@Z@4QBDB" = comdat any

$"??_7failure@ios_base@std@@6B@" = comdat largest

$"??_R4failure@ios_base@std@@6B@" = comdat any

$"??_R3failure@ios_base@std@@8" = comdat any

$"??_R2failure@ios_base@std@@8" = comdat any

$"??_R1A@?0A@EA@failure@ios_base@std@@8" = comdat any

$"??_R1A@?0A@EA@system_error@std@@8" = comdat any

$"??_R3system_error@std@@8" = comdat any

$"??_R2system_error@std@@8" = comdat any

$"??_R1A@?0A@EA@_System_error@std@@8" = comdat any

$"??_R3_System_error@std@@8" = comdat any

$"??_R2_System_error@std@@8" = comdat any

$"??_R1A@?0A@EA@runtime_error@std@@8" = comdat any

$"??_R3runtime_error@std@@8" = comdat any

$"??_R2runtime_error@std@@8" = comdat any

$"??_7system_error@std@@6B@" = comdat largest

$"??_R4system_error@std@@6B@" = comdat any

$"??_7_System_error@std@@6B@" = comdat largest

$"??_R4_System_error@std@@6B@" = comdat any

$"??_C@_02LMMGGCAJ@?3?5?$AA@" = comdat any

$"??_7runtime_error@std@@6B@" = comdat largest

$"??_R4runtime_error@std@@6B@" = comdat any

$"?_Psave@?$_Facetptr@V?$ctype@D@std@@@std@@2PEBVfacet@locale@2@EB" = comdat any

$"??_C@_00CNPNBAHC@?$AA@" = comdat any

$"??_C@_0BA@ELKIONDK@bad?5locale?5name?$AA@" = comdat any

$"??_7?$ctype@D@std@@6B@" = comdat largest

$"??_R4?$ctype@D@std@@6B@" = comdat any

$"??_R0?AV?$ctype@D@std@@@8" = comdat any

$"??_R3?$ctype@D@std@@8" = comdat any

$"??_R2?$ctype@D@std@@8" = comdat any

$"??_R1A@?0A@EA@?$ctype@D@std@@8" = comdat any

$"??_R1A@?0A@EA@ctype_base@std@@8" = comdat any

$"??_R0?AUctype_base@std@@@8" = comdat any

$"??_R3ctype_base@std@@8" = comdat any

$"??_R2ctype_base@std@@8" = comdat any

$"??_R1A@?0A@EA@facet@locale@std@@8" = comdat any

$"??_R0?AVfacet@locale@std@@@8" = comdat any

$"??_R3facet@locale@std@@8" = comdat any

$"??_R2facet@locale@std@@8" = comdat any

$"??_R1A@?0A@EA@_Facet_base@std@@8" = comdat any

$"??_R0?AV_Facet_base@std@@@8" = comdat any

$"??_R3_Facet_base@std@@8" = comdat any

$"??_R2_Facet_base@std@@8" = comdat any

$"??_R17?0A@EA@_Crt_new_delete@std@@8" = comdat any

$"??_R0?AU_Crt_new_delete@std@@@8" = comdat any

$"??_R3_Crt_new_delete@std@@8" = comdat any

$"??_R2_Crt_new_delete@std@@8" = comdat any

$"??_R1A@?0A@EA@_Crt_new_delete@std@@8" = comdat any

$"??_R1A@?0A@EA@_Ctype_constants_base@std@@8" = comdat any

$"??_R0?AU_Ctype_constants_base@std@@@8" = comdat any

$"??_R3_Ctype_constants_base@std@@8" = comdat any

$"??_R2_Ctype_constants_base@std@@8" = comdat any

$"??_7ctype_base@std@@6B@" = comdat largest

$"??_R4ctype_base@std@@6B@" = comdat any

$"??_7facet@locale@std@@6B@" = comdat largest

$"??_R4facet@locale@std@@6B@" = comdat any

$"??_7_Facet_base@std@@6B@" = comdat largest

$"??_R4_Facet_base@std@@6B@" = comdat any

$"??_R0?AVbad_cast@std@@@8" = comdat any

$"_CT??_R0?AVbad_cast@std@@@8??0bad_cast@std@@QEAA@AEBV01@@Z24" = comdat any

$"_CTA2?AVbad_cast@std@@" = comdat any

$"_TI2?AVbad_cast@std@@" = comdat any

$"??_C@_08EPJLHIJG@bad?5cast?$AA@" = comdat any

$"??_7bad_cast@std@@6B@" = comdat largest

$"??_R4bad_cast@std@@6B@" = comdat any

$"??_R3bad_cast@std@@8" = comdat any

$"??_R2bad_cast@std@@8" = comdat any

$"??_R1A@?0A@EA@bad_cast@std@@8" = comdat any

$"?_Psave@?$_Facetptr@V?$num_get@DV?$istreambuf_iterator@DU?$char_traits@D@std@@@std@@@std@@@std@@2PEBVfacet@locale@2@EB" = comdat any

$"??_7?$num_get@DV?$istreambuf_iterator@DU?$char_traits@D@std@@@std@@@std@@6B@" = comdat largest

$"??_R4?$num_get@DV?$istreambuf_iterator@DU?$char_traits@D@std@@@std@@@std@@6B@" = comdat any

$"??_R0?AV?$num_get@DV?$istreambuf_iterator@DU?$char_traits@D@std@@@std@@@std@@@8" = comdat any

$"??_R3?$num_get@DV?$istreambuf_iterator@DU?$char_traits@D@std@@@std@@@std@@8" = comdat any

$"??_R2?$num_get@DV?$istreambuf_iterator@DU?$char_traits@D@std@@@std@@@std@@8" = comdat any

$"??_R1A@?0A@EA@?$num_get@DV?$istreambuf_iterator@DU?$char_traits@D@std@@@std@@@std@@8" = comdat any

$"?_Src@?1???$_Parse_int_with_locale@$0A@@?$num_get@DV?$istreambuf_iterator@DU?$char_traits@D@std@@@std@@@std@@CA?AU_Num_get_parse_result@2@QEADAEAV?$istreambuf_iterator@DU?$char_traits@D@std@@@2@1HAEBVlocale@2@@Z@4QBDB" = comdat any

$"?_Psave@?$_Facetptr@V?$numpunct@D@std@@@std@@2PEBVfacet@locale@2@EB" = comdat any

$"??_7?$numpunct@D@std@@6B@" = comdat largest

$"??_R4?$numpunct@D@std@@6B@" = comdat any

$"??_R0?AV?$numpunct@D@std@@@8" = comdat any

$"??_R3?$numpunct@D@std@@8" = comdat any

$"??_R2?$numpunct@D@std@@8" = comdat any

$"??_R1A@?0A@EA@?$numpunct@D@std@@8" = comdat any

$"??_C@_05LAPONLG@false?$AA@" = comdat any

$"??_C@_04LOAJBDKD@true?$AA@" = comdat any

$"?_Src@?1???$_Parse_fp_with_locale@$0A@@?$num_get@DV?$istreambuf_iterator@DU?$char_traits@D@std@@@std@@@std@@CA?AU_Num_get_parse_result@2@QEADHAEAV?$istreambuf_iterator@DU?$char_traits@D@std@@@2@1AEBVlocale@2@@Z@4QBDB" = comdat any

$"??_C@_0BA@FOIKENOD@vector?5too?5long?$AA@" = comdat any

$"?_Psave@?$_Facetptr@V?$num_put@DV?$ostreambuf_iterator@DU?$char_traits@D@std@@@std@@@std@@@std@@2PEBVfacet@locale@2@EB" = comdat any

$"??_7?$num_put@DV?$ostreambuf_iterator@DU?$char_traits@D@std@@@std@@@std@@6B@" = comdat largest

$"??_R4?$num_put@DV?$ostreambuf_iterator@DU?$char_traits@D@std@@@std@@@std@@6B@" = comdat any

$"??_R0?AV?$num_put@DV?$ostreambuf_iterator@DU?$char_traits@D@std@@@std@@@std@@@8" = comdat any

$"??_R3?$num_put@DV?$ostreambuf_iterator@DU?$char_traits@D@std@@@std@@@std@@8" = comdat any

$"??_R2?$num_put@DV?$ostreambuf_iterator@DU?$char_traits@D@std@@@std@@@std@@8" = comdat any

$"??_R1A@?0A@EA@?$num_put@DV?$ostreambuf_iterator@DU?$char_traits@D@std@@@std@@@std@@8" = comdat any

$"??_C@_02BBAHNLBA@?$CFp?$AA@" = comdat any

$"?_OptionsStorage@?1??__local_stdio_printf_options@@9@4_KA" = comdat any

$"??_C@_0BI@CFPLBAOH@invalid?5string?5position?$AA@" = comdat any

$"??_C@_02MDKMJEGG@eE?$AA@" = comdat any

$"??_C@_02OOPEBDOJ@pP?$AA@" = comdat any

@_Avx2WmemEnabledWeakValue = weak_odr dso_local local_unnamed_addr global i32 0, comdat, align 4
@"?cout@std@@3V?$basic_ostream@DU?$char_traits@D@std@@@1@A" = external dso_local global %"class.std::basic_ostream", align 8
@"??_C@_0BL@BHNAENJN@Enter?5number?5of?5students?3?5?$AA@" = linkonce_odr dso_local unnamed_addr constant [27 x i8] c"Enter number of students: \00", comdat, align 1
@"?cin@std@@3V?$basic_istream@DU?$char_traits@D@std@@@1@A" = external dso_local global %"class.std::basic_istream", align 8
@"??_C@_09JPAMLHK@?6Student?5?$AA@" = linkonce_odr dso_local unnamed_addr constant [10 x i8] c"\0AStudent \00", comdat, align 1
@"??_C@_04MEDALJFE@ID?3?5?$AA@" = linkonce_odr dso_local unnamed_addr constant [5 x i8] c"ID: \00", comdat, align 1
@"??_C@_06GECNACHD@Name?3?5?$AA@" = linkonce_odr dso_local unnamed_addr constant [7 x i8] c"Name: \00", comdat, align 1
@"??_C@_07GIHOBBPL@Marks?3?5?$AA@" = linkonce_odr dso_local unnamed_addr constant [8 x i8] c"Marks: \00", comdat, align 1
@"??_C@_0BC@MKJAKPKP@?6Average?5Marks?5?$DN?5?$AA@" = linkonce_odr dso_local unnamed_addr constant [18 x i8] c"\0AAverage Marks = \00", comdat, align 1
@"??_C@_09IJJPGACB@?6Topper?3?6?$AA@" = linkonce_odr dso_local unnamed_addr constant [10 x i8] c"\0ATopper:\0A\00", comdat, align 1
@"??_C@_01CLKCMJKC@?5?$AA@" = linkonce_odr dso_local unnamed_addr constant [2 x i8] c" \00", comdat, align 1
@"??_C@_0P@FBBLEHHE@?6Sorted?5List?3?6?$AA@" = linkonce_odr dso_local unnamed_addr constant [15 x i8] c"\0ASorted List:\0A\00", comdat, align 1
@"?id@?$num_get@DV?$istreambuf_iterator@DU?$char_traits@D@std@@@std@@@std@@2V0locale@2@A" = linkonce_odr dso_local global %"class.std::locale::id" zeroinitializer, comdat, align 8
@"?id@?$numpunct@D@std@@2V0locale@2@A" = linkonce_odr dso_local global %"class.std::locale::id" zeroinitializer, comdat, align 8
@"?id@?$num_put@DV?$ostreambuf_iterator@DU?$char_traits@D@std@@@std@@@std@@2V0locale@2@A" = linkonce_odr dso_local global %"class.std::locale::id" zeroinitializer, comdat, align 8
@"??_C@_0BA@JFNIOLAK@string?5too?5long?$AA@" = linkonce_odr dso_local unnamed_addr constant [16 x i8] c"string too long\00", comdat, align 1
@"??_7type_info@@6B@" = external constant ptr
@"??_R0?AVbad_array_new_length@std@@@8" = linkonce_odr global %rtti.TypeDescriptor30 { ptr @"??_7type_info@@6B@", ptr null, [31 x i8] c".?AVbad_array_new_length@std@@\00" }, comdat
@__ImageBase = external dso_local constant i8
@"_CT??_R0?AVbad_array_new_length@std@@@8??0bad_array_new_length@std@@QEAA@AEBV01@@Z24" = linkonce_odr unnamed_addr constant %eh.CatchableType { i32 0, i32 trunc (i64 sub nuw nsw (i64 ptrtoint (ptr @"??_R0?AVbad_array_new_length@std@@@8" to i64), i64 ptrtoint (ptr @__ImageBase to i64)) to i32), i32 0, i32 -1, i32 0, i32 24, i32 trunc (i64 sub nuw nsw (i64 ptrtoint (ptr @"??0bad_array_new_length@std@@QEAA@AEBV01@@Z" to i64), i64 ptrtoint (ptr @__ImageBase to i64)) to i32) }, section ".xdata", comdat
@"??_R0?AVbad_alloc@std@@@8" = linkonce_odr global %rtti.TypeDescriptor19 { ptr @"??_7type_info@@6B@", ptr null, [20 x i8] c".?AVbad_alloc@std@@\00" }, comdat
@"_CT??_R0?AVbad_alloc@std@@@8??0bad_alloc@std@@QEAA@AEBV01@@Z24" = linkonce_odr unnamed_addr constant %eh.CatchableType { i32 16, i32 trunc (i64 sub nuw nsw (i64 ptrtoint (ptr @"??_R0?AVbad_alloc@std@@@8" to i64), i64 ptrtoint (ptr @__ImageBase to i64)) to i32), i32 0, i32 -1, i32 0, i32 24, i32 trunc (i64 sub nuw nsw (i64 ptrtoint (ptr @"??0bad_alloc@std@@QEAA@AEBV01@@Z" to i64), i64 ptrtoint (ptr @__ImageBase to i64)) to i32) }, section ".xdata", comdat
@"??_R0?AVexception@std@@@8" = linkonce_odr global %rtti.TypeDescriptor19 { ptr @"??_7type_info@@6B@", ptr null, [20 x i8] c".?AVexception@std@@\00" }, comdat
@"_CT??_R0?AVexception@std@@@8??0exception@std@@QEAA@AEBV01@@Z24" = linkonce_odr unnamed_addr constant %eh.CatchableType { i32 0, i32 trunc (i64 sub nuw nsw (i64 ptrtoint (ptr @"??_R0?AVexception@std@@@8" to i64), i64 ptrtoint (ptr @__ImageBase to i64)) to i32), i32 0, i32 -1, i32 0, i32 24, i32 trunc (i64 sub nuw nsw (i64 ptrtoint (ptr @"??0exception@std@@QEAA@AEBV01@@Z" to i64), i64 ptrtoint (ptr @__ImageBase to i64)) to i32) }, section ".xdata", comdat
@"_CTA3?AVbad_array_new_length@std@@" = linkonce_odr unnamed_addr constant %eh.CatchableTypeArray.3 { i32 3, [3 x i32] [i32 trunc (i64 sub nuw nsw (i64 ptrtoint (ptr @"_CT??_R0?AVbad_array_new_length@std@@@8??0bad_array_new_length@std@@QEAA@AEBV01@@Z24" to i64), i64 ptrtoint (ptr @__ImageBase to i64)) to i32), i32 trunc (i64 sub nuw nsw (i64 ptrtoint (ptr @"_CT??_R0?AVbad_alloc@std@@@8??0bad_alloc@std@@QEAA@AEBV01@@Z24" to i64), i64 ptrtoint (ptr @__ImageBase to i64)) to i32), i32 trunc (i64 sub nuw nsw (i64 ptrtoint (ptr @"_CT??_R0?AVexception@std@@@8??0exception@std@@QEAA@AEBV01@@Z24" to i64), i64 ptrtoint (ptr @__ImageBase to i64)) to i32)] }, section ".xdata", comdat
@"_TI3?AVbad_array_new_length@std@@" = linkonce_odr unnamed_addr constant %eh.ThrowInfo { i32 0, i32 trunc (i64 sub nuw nsw (i64 ptrtoint (ptr @"??1exception@std@@UEAA@XZ" to i64), i64 ptrtoint (ptr @__ImageBase to i64)) to i32), i32 0, i32 trunc (i64 sub nuw nsw (i64 ptrtoint (ptr @"_CTA3?AVbad_array_new_length@std@@" to i64), i64 ptrtoint (ptr @__ImageBase to i64)) to i32) }, section ".xdata", comdat
@"??_C@_0BF@KINCDENJ@bad?5array?5new?5length?$AA@" = linkonce_odr dso_local unnamed_addr constant [21 x i8] c"bad array new length\00", comdat, align 1
@0 = private unnamed_addr constant { [3 x ptr] } { [3 x ptr] [ptr @"??_R4bad_array_new_length@std@@6B@", ptr @"??_Ebad_array_new_length@std@@UEAAPEAXI@Z", ptr @"?what@exception@std@@UEBAPEBDXZ"] }, comdat($"??_7bad_array_new_length@std@@6B@")
@"??_R4bad_array_new_length@std@@6B@" = linkonce_odr constant %rtti.CompleteObjectLocator { i32 1, i32 0, i32 0, i32 trunc (i64 sub nuw nsw (i64 ptrtoint (ptr @"??_R0?AVbad_array_new_length@std@@@8" to i64), i64 ptrtoint (ptr @__ImageBase to i64)) to i32), i32 trunc (i64 sub nuw nsw (i64 ptrtoint (ptr @"??_R3bad_array_new_length@std@@8" to i64), i64 ptrtoint (ptr @__ImageBase to i64)) to i32), i32 trunc (i64 sub nuw nsw (i64 ptrtoint (ptr @"??_R4bad_array_new_length@std@@6B@" to i64), i64 ptrtoint (ptr @__ImageBase to i64)) to i32) }, comdat
@"??_R3bad_array_new_length@std@@8" = linkonce_odr constant %rtti.ClassHierarchyDescriptor { i32 0, i32 0, i32 3, i32 trunc (i64 sub nuw nsw (i64 ptrtoint (ptr @"??_R2bad_array_new_length@std@@8" to i64), i64 ptrtoint (ptr @__ImageBase to i64)) to i32) }, comdat
@"??_R2bad_array_new_length@std@@8" = linkonce_odr constant [4 x i32] [i32 trunc (i64 sub nuw nsw (i64 ptrtoint (ptr @"??_R1A@?0A@EA@bad_array_new_length@std@@8" to i64), i64 ptrtoint (ptr @__ImageBase to i64)) to i32), i32 trunc (i64 sub nuw nsw (i64 ptrtoint (ptr @"??_R1A@?0A@EA@bad_alloc@std@@8" to i64), i64 ptrtoint (ptr @__ImageBase to i64)) to i32), i32 trunc (i64 sub nuw nsw (i64 ptrtoint (ptr @"??_R1A@?0A@EA@exception@std@@8" to i64), i64 ptrtoint (ptr @__ImageBase to i64)) to i32), i32 0], comdat
@"??_R1A@?0A@EA@bad_array_new_length@std@@8" = linkonce_odr constant %rtti.BaseClassDescriptor { i32 trunc (i64 sub nuw nsw (i64 ptrtoint (ptr @"??_R0?AVbad_array_new_length@std@@@8" to i64), i64 ptrtoint (ptr @__ImageBase to i64)) to i32), i32 2, i32 0, i32 -1, i32 0, i32 64, i32 trunc (i64 sub nuw nsw (i64 ptrtoint (ptr @"??_R3bad_array_new_length@std@@8" to i64), i64 ptrtoint (ptr @__ImageBase to i64)) to i32) }, comdat
@"??_R1A@?0A@EA@bad_alloc@std@@8" = linkonce_odr constant %rtti.BaseClassDescriptor { i32 trunc (i64 sub nuw nsw (i64 ptrtoint (ptr @"??_R0?AVbad_alloc@std@@@8" to i64), i64 ptrtoint (ptr @__ImageBase to i64)) to i32), i32 1, i32 0, i32 -1, i32 0, i32 64, i32 trunc (i64 sub nuw nsw (i64 ptrtoint (ptr @"??_R3bad_alloc@std@@8" to i64), i64 ptrtoint (ptr @__ImageBase to i64)) to i32) }, comdat
@"??_R3bad_alloc@std@@8" = linkonce_odr constant %rtti.ClassHierarchyDescriptor { i32 0, i32 0, i32 2, i32 trunc (i64 sub nuw nsw (i64 ptrtoint (ptr @"??_R2bad_alloc@std@@8" to i64), i64 ptrtoint (ptr @__ImageBase to i64)) to i32) }, comdat
@"??_R2bad_alloc@std@@8" = linkonce_odr constant [3 x i32] [i32 trunc (i64 sub nuw nsw (i64 ptrtoint (ptr @"??_R1A@?0A@EA@bad_alloc@std@@8" to i64), i64 ptrtoint (ptr @__ImageBase to i64)) to i32), i32 trunc (i64 sub nuw nsw (i64 ptrtoint (ptr @"??_R1A@?0A@EA@exception@std@@8" to i64), i64 ptrtoint (ptr @__ImageBase to i64)) to i32), i32 0], comdat
@"??_R1A@?0A@EA@exception@std@@8" = linkonce_odr constant %rtti.BaseClassDescriptor { i32 trunc (i64 sub nuw nsw (i64 ptrtoint (ptr @"??_R0?AVexception@std@@@8" to i64), i64 ptrtoint (ptr @__ImageBase to i64)) to i32), i32 0, i32 0, i32 -1, i32 0, i32 64, i32 trunc (i64 sub nuw nsw (i64 ptrtoint (ptr @"??_R3exception@std@@8" to i64), i64 ptrtoint (ptr @__ImageBase to i64)) to i32) }, comdat
@"??_R3exception@std@@8" = linkonce_odr constant %rtti.ClassHierarchyDescriptor { i32 0, i32 0, i32 1, i32 trunc (i64 sub nuw nsw (i64 ptrtoint (ptr @"??_R2exception@std@@8" to i64), i64 ptrtoint (ptr @__ImageBase to i64)) to i32) }, comdat
@"??_R2exception@std@@8" = linkonce_odr constant [2 x i32] [i32 trunc (i64 sub nuw nsw (i64 ptrtoint (ptr @"??_R1A@?0A@EA@exception@std@@8" to i64), i64 ptrtoint (ptr @__ImageBase to i64)) to i32), i32 0], comdat
@1 = private unnamed_addr constant { [3 x ptr] } { [3 x ptr] [ptr @"??_R4bad_alloc@std@@6B@", ptr @"??_Ebad_alloc@std@@UEAAPEAXI@Z", ptr @"?what@exception@std@@UEBAPEBDXZ"] }, comdat($"??_7bad_alloc@std@@6B@")
@"??_R4bad_alloc@std@@6B@" = linkonce_odr constant %rtti.CompleteObjectLocator { i32 1, i32 0, i32 0, i32 trunc (i64 sub nuw nsw (i64 ptrtoint (ptr @"??_R0?AVbad_alloc@std@@@8" to i64), i64 ptrtoint (ptr @__ImageBase to i64)) to i32), i32 trunc (i64 sub nuw nsw (i64 ptrtoint (ptr @"??_R3bad_alloc@std@@8" to i64), i64 ptrtoint (ptr @__ImageBase to i64)) to i32), i32 trunc (i64 sub nuw nsw (i64 ptrtoint (ptr @"??_R4bad_alloc@std@@6B@" to i64), i64 ptrtoint (ptr @__ImageBase to i64)) to i32) }, comdat
@2 = private unnamed_addr constant { [3 x ptr] } { [3 x ptr] [ptr @"??_R4exception@std@@6B@", ptr @"??_Eexception@std@@UEAAPEAXI@Z", ptr @"?what@exception@std@@UEBAPEBDXZ"] }, comdat($"??_7exception@std@@6B@")
@"??_R4exception@std@@6B@" = linkonce_odr constant %rtti.CompleteObjectLocator { i32 1, i32 0, i32 0, i32 trunc (i64 sub nuw nsw (i64 ptrtoint (ptr @"??_R0?AVexception@std@@@8" to i64), i64 ptrtoint (ptr @__ImageBase to i64)) to i32), i32 trunc (i64 sub nuw nsw (i64 ptrtoint (ptr @"??_R3exception@std@@8" to i64), i64 ptrtoint (ptr @__ImageBase to i64)) to i32), i32 trunc (i64 sub nuw nsw (i64 ptrtoint (ptr @"??_R4exception@std@@6B@" to i64), i64 ptrtoint (ptr @__ImageBase to i64)) to i32) }, comdat
@"??_C@_0BC@EOODALEL@Unknown?5exception?$AA@" = linkonce_odr dso_local unnamed_addr constant [18 x i8] c"Unknown exception\00", comdat, align 1
@"??_C@_0BF@PHHKMMFD@ios_base?3?3badbit?5set?$AA@" = linkonce_odr dso_local unnamed_addr constant [21 x i8] c"ios_base::badbit set\00", comdat, align 1
@"??_C@_0BG@FMKFHCIL@ios_base?3?3failbit?5set?$AA@" = linkonce_odr dso_local unnamed_addr constant [22 x i8] c"ios_base::failbit set\00", comdat, align 1
@"??_C@_0BF@OOHOMBOF@ios_base?3?3eofbit?5set?$AA@" = linkonce_odr dso_local unnamed_addr constant [21 x i8] c"ios_base::eofbit set\00", comdat, align 1
@"??_R0?AVfailure@ios_base@std@@@8" = linkonce_odr global %rtti.TypeDescriptor26 { ptr @"??_7type_info@@6B@", ptr null, [27 x i8] c".?AVfailure@ios_base@std@@\00" }, comdat
@"_CT??_R0?AVfailure@ios_base@std@@@8??0failure@ios_base@std@@QEAA@AEBV012@@Z40" = linkonce_odr unnamed_addr constant %eh.CatchableType { i32 0, i32 trunc (i64 sub nuw nsw (i64 ptrtoint (ptr @"??_R0?AVfailure@ios_base@std@@@8" to i64), i64 ptrtoint (ptr @__ImageBase to i64)) to i32), i32 0, i32 -1, i32 0, i32 40, i32 trunc (i64 sub nuw nsw (i64 ptrtoint (ptr @"??0failure@ios_base@std@@QEAA@AEBV012@@Z" to i64), i64 ptrtoint (ptr @__ImageBase to i64)) to i32) }, section ".xdata", comdat
@"??_R0?AVsystem_error@std@@@8" = linkonce_odr global %rtti.TypeDescriptor22 { ptr @"??_7type_info@@6B@", ptr null, [23 x i8] c".?AVsystem_error@std@@\00" }, comdat
@"_CT??_R0?AVsystem_error@std@@@8??0system_error@std@@QEAA@AEBV01@@Z40" = linkonce_odr unnamed_addr constant %eh.CatchableType { i32 0, i32 trunc (i64 sub nuw nsw (i64 ptrtoint (ptr @"??_R0?AVsystem_error@std@@@8" to i64), i64 ptrtoint (ptr @__ImageBase to i64)) to i32), i32 0, i32 -1, i32 0, i32 40, i32 trunc (i64 sub nuw nsw (i64 ptrtoint (ptr @"??0system_error@std@@QEAA@AEBV01@@Z" to i64), i64 ptrtoint (ptr @__ImageBase to i64)) to i32) }, section ".xdata", comdat
@"??_R0?AV_System_error@std@@@8" = linkonce_odr global %rtti.TypeDescriptor23 { ptr @"??_7type_info@@6B@", ptr null, [24 x i8] c".?AV_System_error@std@@\00" }, comdat
@"_CT??_R0?AV_System_error@std@@@8??0_System_error@std@@QEAA@AEBV01@@Z40" = linkonce_odr unnamed_addr constant %eh.CatchableType { i32 0, i32 trunc (i64 sub nuw nsw (i64 ptrtoint (ptr @"??_R0?AV_System_error@std@@@8" to i64), i64 ptrtoint (ptr @__ImageBase to i64)) to i32), i32 0, i32 -1, i32 0, i32 40, i32 trunc (i64 sub nuw nsw (i64 ptrtoint (ptr @"??0_System_error@std@@QEAA@AEBV01@@Z" to i64), i64 ptrtoint (ptr @__ImageBase to i64)) to i32) }, section ".xdata", comdat
@"??_R0?AVruntime_error@std@@@8" = linkonce_odr global %rtti.TypeDescriptor23 { ptr @"??_7type_info@@6B@", ptr null, [24 x i8] c".?AVruntime_error@std@@\00" }, comdat
@"_CT??_R0?AVruntime_error@std@@@8??0runtime_error@std@@QEAA@AEBV01@@Z24" = linkonce_odr unnamed_addr constant %eh.CatchableType { i32 0, i32 trunc (i64 sub nuw nsw (i64 ptrtoint (ptr @"??_R0?AVruntime_error@std@@@8" to i64), i64 ptrtoint (ptr @__ImageBase to i64)) to i32), i32 0, i32 -1, i32 0, i32 24, i32 trunc (i64 sub nuw nsw (i64 ptrtoint (ptr @"??0runtime_error@std@@QEAA@AEBV01@@Z" to i64), i64 ptrtoint (ptr @__ImageBase to i64)) to i32) }, section ".xdata", comdat
@"_CTA5?AVfailure@ios_base@std@@" = linkonce_odr unnamed_addr constant %eh.CatchableTypeArray.5 { i32 5, [5 x i32] [i32 trunc (i64 sub nuw nsw (i64 ptrtoint (ptr @"_CT??_R0?AVfailure@ios_base@std@@@8??0failure@ios_base@std@@QEAA@AEBV012@@Z40" to i64), i64 ptrtoint (ptr @__ImageBase to i64)) to i32), i32 trunc (i64 sub nuw nsw (i64 ptrtoint (ptr @"_CT??_R0?AVsystem_error@std@@@8??0system_error@std@@QEAA@AEBV01@@Z40" to i64), i64 ptrtoint (ptr @__ImageBase to i64)) to i32), i32 trunc (i64 sub nuw nsw (i64 ptrtoint (ptr @"_CT??_R0?AV_System_error@std@@@8??0_System_error@std@@QEAA@AEBV01@@Z40" to i64), i64 ptrtoint (ptr @__ImageBase to i64)) to i32), i32 trunc (i64 sub nuw nsw (i64 ptrtoint (ptr @"_CT??_R0?AVruntime_error@std@@@8??0runtime_error@std@@QEAA@AEBV01@@Z24" to i64), i64 ptrtoint (ptr @__ImageBase to i64)) to i32), i32 trunc (i64 sub nuw nsw (i64 ptrtoint (ptr @"_CT??_R0?AVexception@std@@@8??0exception@std@@QEAA@AEBV01@@Z24" to i64), i64 ptrtoint (ptr @__ImageBase to i64)) to i32)] }, section ".xdata", comdat
@"_TI5?AVfailure@ios_base@std@@" = linkonce_odr unnamed_addr constant %eh.ThrowInfo { i32 0, i32 trunc (i64 sub nuw nsw (i64 ptrtoint (ptr @"??1exception@std@@UEAA@XZ" to i64), i64 ptrtoint (ptr @__ImageBase to i64)) to i32), i32 0, i32 trunc (i64 sub nuw nsw (i64 ptrtoint (ptr @"_CTA5?AVfailure@ios_base@std@@" to i64), i64 ptrtoint (ptr @__ImageBase to i64)) to i32) }, section ".xdata", comdat
@"?_Static@?1???$_Immortalize_memcpy_image@V_Iostream_error_category2@std@@@std@@YAAEBV_Iostream_error_category2@1@XZ@4V21@A" = linkonce_odr dso_local global { ptr, %"union.std::error_category::_Addr_storage" } { ptr @"??_7_Iostream_error_category2@std@@6B@", %"union.std::error_category::_Addr_storage" { i64 5 } }, comdat, align 8
@3 = private unnamed_addr constant { [7 x ptr] } { [7 x ptr] [ptr @"??_R4_Iostream_error_category2@std@@6B@", ptr @"??_E_Iostream_error_category2@std@@UEAAPEAXI@Z", ptr @"?name@_Iostream_error_category2@std@@UEBAPEBDXZ", ptr @"?message@_Iostream_error_category2@std@@UEBA?AV?$basic_string@DU?$char_traits@D@std@@V?$allocator@D@2@@2@H@Z", ptr @"?default_error_condition@error_category@std@@UEBA?AVerror_condition@2@H@Z", ptr @"?equivalent@error_category@std@@UEBA_NAEBVerror_code@2@H@Z", ptr @"?equivalent@error_category@std@@UEBA_NHAEBVerror_condition@2@@Z"] }, comdat($"??_7_Iostream_error_category2@std@@6B@")
@"?$TSS0@?1???$_Immortalize_memcpy_image@V_Iostream_error_category2@std@@@std@@YAAEBV_Iostream_error_category2@1@XZ@4HA" = linkonce_odr global i32 0, comdat, align 4
@_Init_thread_epoch = external thread_local local_unnamed_addr global i32, align 4
@"??_R4_Iostream_error_category2@std@@6B@" = linkonce_odr constant %rtti.CompleteObjectLocator { i32 1, i32 0, i32 0, i32 trunc (i64 sub nuw nsw (i64 ptrtoint (ptr @"??_R0?AV_Iostream_error_category2@std@@@8" to i64), i64 ptrtoint (ptr @__ImageBase to i64)) to i32), i32 trunc (i64 sub nuw nsw (i64 ptrtoint (ptr @"??_R3_Iostream_error_category2@std@@8" to i64), i64 ptrtoint (ptr @__ImageBase to i64)) to i32), i32 trunc (i64 sub nuw nsw (i64 ptrtoint (ptr @"??_R4_Iostream_error_category2@std@@6B@" to i64), i64 ptrtoint (ptr @__ImageBase to i64)) to i32) }, comdat
@"??_R0?AV_Iostream_error_category2@std@@@8" = linkonce_odr global %rtti.TypeDescriptor35 { ptr @"??_7type_info@@6B@", ptr null, [36 x i8] c".?AV_Iostream_error_category2@std@@\00" }, comdat
@"??_R3_Iostream_error_category2@std@@8" = linkonce_odr constant %rtti.ClassHierarchyDescriptor { i32 0, i32 0, i32 2, i32 trunc (i64 sub nuw nsw (i64 ptrtoint (ptr @"??_R2_Iostream_error_category2@std@@8" to i64), i64 ptrtoint (ptr @__ImageBase to i64)) to i32) }, comdat
@"??_R2_Iostream_error_category2@std@@8" = linkonce_odr constant [3 x i32] [i32 trunc (i64 sub nuw nsw (i64 ptrtoint (ptr @"??_R1A@?0A@EA@_Iostream_error_category2@std@@8" to i64), i64 ptrtoint (ptr @__ImageBase to i64)) to i32), i32 trunc (i64 sub nuw nsw (i64 ptrtoint (ptr @"??_R1A@?0A@EA@error_category@std@@8" to i64), i64 ptrtoint (ptr @__ImageBase to i64)) to i32), i32 0], comdat
@"??_R1A@?0A@EA@_Iostream_error_category2@std@@8" = linkonce_odr constant %rtti.BaseClassDescriptor { i32 trunc (i64 sub nuw nsw (i64 ptrtoint (ptr @"??_R0?AV_Iostream_error_category2@std@@@8" to i64), i64 ptrtoint (ptr @__ImageBase to i64)) to i32), i32 1, i32 0, i32 -1, i32 0, i32 64, i32 trunc (i64 sub nuw nsw (i64 ptrtoint (ptr @"??_R3_Iostream_error_category2@std@@8" to i64), i64 ptrtoint (ptr @__ImageBase to i64)) to i32) }, comdat
@"??_R1A@?0A@EA@error_category@std@@8" = linkonce_odr constant %rtti.BaseClassDescriptor { i32 trunc (i64 sub nuw nsw (i64 ptrtoint (ptr @"??_R0?AVerror_category@std@@@8" to i64), i64 ptrtoint (ptr @__ImageBase to i64)) to i32), i32 0, i32 0, i32 -1, i32 0, i32 64, i32 trunc (i64 sub nuw nsw (i64 ptrtoint (ptr @"??_R3error_category@std@@8" to i64), i64 ptrtoint (ptr @__ImageBase to i64)) to i32) }, comdat
@"??_R0?AVerror_category@std@@@8" = linkonce_odr global %rtti.TypeDescriptor24 { ptr @"??_7type_info@@6B@", ptr null, [25 x i8] c".?AVerror_category@std@@\00" }, comdat
@"??_R3error_category@std@@8" = linkonce_odr constant %rtti.ClassHierarchyDescriptor { i32 0, i32 0, i32 1, i32 trunc (i64 sub nuw nsw (i64 ptrtoint (ptr @"??_R2error_category@std@@8" to i64), i64 ptrtoint (ptr @__ImageBase to i64)) to i32) }, comdat
@"??_R2error_category@std@@8" = linkonce_odr constant [2 x i32] [i32 trunc (i64 sub nuw nsw (i64 ptrtoint (ptr @"??_R1A@?0A@EA@error_category@std@@8" to i64), i64 ptrtoint (ptr @__ImageBase to i64)) to i32), i32 0], comdat
@"??_C@_08LLGCOLLL@iostream?$AA@" = linkonce_odr dso_local unnamed_addr constant [9 x i8] c"iostream\00", comdat, align 1
@"?_Iostream_error@?4??message@_Iostream_error_category2@std@@UEBA?AV?$basic_string@DU?$char_traits@D@std@@V?$allocator@D@2@@3@H@Z@4QBDB" = linkonce_odr dso_local local_unnamed_addr constant [22 x i8] c"iostream stream error\00", comdat, align 16
@4 = private unnamed_addr constant { [3 x ptr] } { [3 x ptr] [ptr @"??_R4failure@ios_base@std@@6B@", ptr @"??_Efailure@ios_base@std@@UEAAPEAXI@Z", ptr @"?what@exception@std@@UEBAPEBDXZ"] }, comdat($"??_7failure@ios_base@std@@6B@")
@"??_R4failure@ios_base@std@@6B@" = linkonce_odr constant %rtti.CompleteObjectLocator { i32 1, i32 0, i32 0, i32 trunc (i64 sub nuw nsw (i64 ptrtoint (ptr @"??_R0?AVfailure@ios_base@std@@@8" to i64), i64 ptrtoint (ptr @__ImageBase to i64)) to i32), i32 trunc (i64 sub nuw nsw (i64 ptrtoint (ptr @"??_R3failure@ios_base@std@@8" to i64), i64 ptrtoint (ptr @__ImageBase to i64)) to i32), i32 trunc (i64 sub nuw nsw (i64 ptrtoint (ptr @"??_R4failure@ios_base@std@@6B@" to i64), i64 ptrtoint (ptr @__ImageBase to i64)) to i32) }, comdat
@"??_R3failure@ios_base@std@@8" = linkonce_odr constant %rtti.ClassHierarchyDescriptor { i32 0, i32 0, i32 5, i32 trunc (i64 sub nuw nsw (i64 ptrtoint (ptr @"??_R2failure@ios_base@std@@8" to i64), i64 ptrtoint (ptr @__ImageBase to i64)) to i32) }, comdat
@"??_R2failure@ios_base@std@@8" = linkonce_odr constant [6 x i32] [i32 trunc (i64 sub nuw nsw (i64 ptrtoint (ptr @"??_R1A@?0A@EA@failure@ios_base@std@@8" to i64), i64 ptrtoint (ptr @__ImageBase to i64)) to i32), i32 trunc (i64 sub nuw nsw (i64 ptrtoint (ptr @"??_R1A@?0A@EA@system_error@std@@8" to i64), i64 ptrtoint (ptr @__ImageBase to i64)) to i32), i32 trunc (i64 sub nuw nsw (i64 ptrtoint (ptr @"??_R1A@?0A@EA@_System_error@std@@8" to i64), i64 ptrtoint (ptr @__ImageBase to i64)) to i32), i32 trunc (i64 sub nuw nsw (i64 ptrtoint (ptr @"??_R1A@?0A@EA@runtime_error@std@@8" to i64), i64 ptrtoint (ptr @__ImageBase to i64)) to i32), i32 trunc (i64 sub nuw nsw (i64 ptrtoint (ptr @"??_R1A@?0A@EA@exception@std@@8" to i64), i64 ptrtoint (ptr @__ImageBase to i64)) to i32), i32 0], comdat
@"??_R1A@?0A@EA@failure@ios_base@std@@8" = linkonce_odr constant %rtti.BaseClassDescriptor { i32 trunc (i64 sub nuw nsw (i64 ptrtoint (ptr @"??_R0?AVfailure@ios_base@std@@@8" to i64), i64 ptrtoint (ptr @__ImageBase to i64)) to i32), i32 4, i32 0, i32 -1, i32 0, i32 64, i32 trunc (i64 sub nuw nsw (i64 ptrtoint (ptr @"??_R3failure@ios_base@std@@8" to i64), i64 ptrtoint (ptr @__ImageBase to i64)) to i32) }, comdat
@"??_R1A@?0A@EA@system_error@std@@8" = linkonce_odr constant %rtti.BaseClassDescriptor { i32 trunc (i64 sub nuw nsw (i64 ptrtoint (ptr @"??_R0?AVsystem_error@std@@@8" to i64), i64 ptrtoint (ptr @__ImageBase to i64)) to i32), i32 3, i32 0, i32 -1, i32 0, i32 64, i32 trunc (i64 sub nuw nsw (i64 ptrtoint (ptr @"??_R3system_error@std@@8" to i64), i64 ptrtoint (ptr @__ImageBase to i64)) to i32) }, comdat
@"??_R3system_error@std@@8" = linkonce_odr constant %rtti.ClassHierarchyDescriptor { i32 0, i32 0, i32 4, i32 trunc (i64 sub nuw nsw (i64 ptrtoint (ptr @"??_R2system_error@std@@8" to i64), i64 ptrtoint (ptr @__ImageBase to i64)) to i32) }, comdat
@"??_R2system_error@std@@8" = linkonce_odr constant [5 x i32] [i32 trunc (i64 sub nuw nsw (i64 ptrtoint (ptr @"??_R1A@?0A@EA@system_error@std@@8" to i64), i64 ptrtoint (ptr @__ImageBase to i64)) to i32), i32 trunc (i64 sub nuw nsw (i64 ptrtoint (ptr @"??_R1A@?0A@EA@_System_error@std@@8" to i64), i64 ptrtoint (ptr @__ImageBase to i64)) to i32), i32 trunc (i64 sub nuw nsw (i64 ptrtoint (ptr @"??_R1A@?0A@EA@runtime_error@std@@8" to i64), i64 ptrtoint (ptr @__ImageBase to i64)) to i32), i32 trunc (i64 sub nuw nsw (i64 ptrtoint (ptr @"??_R1A@?0A@EA@exception@std@@8" to i64), i64 ptrtoint (ptr @__ImageBase to i64)) to i32), i32 0], comdat
@"??_R1A@?0A@EA@_System_error@std@@8" = linkonce_odr constant %rtti.BaseClassDescriptor { i32 trunc (i64 sub nuw nsw (i64 ptrtoint (ptr @"??_R0?AV_System_error@std@@@8" to i64), i64 ptrtoint (ptr @__ImageBase to i64)) to i32), i32 2, i32 0, i32 -1, i32 0, i32 64, i32 trunc (i64 sub nuw nsw (i64 ptrtoint (ptr @"??_R3_System_error@std@@8" to i64), i64 ptrtoint (ptr @__ImageBase to i64)) to i32) }, comdat
@"??_R3_System_error@std@@8" = linkonce_odr constant %rtti.ClassHierarchyDescriptor { i32 0, i32 0, i32 3, i32 trunc (i64 sub nuw nsw (i64 ptrtoint (ptr @"??_R2_System_error@std@@8" to i64), i64 ptrtoint (ptr @__ImageBase to i64)) to i32) }, comdat
@"??_R2_System_error@std@@8" = linkonce_odr constant [4 x i32] [i32 trunc (i64 sub nuw nsw (i64 ptrtoint (ptr @"??_R1A@?0A@EA@_System_error@std@@8" to i64), i64 ptrtoint (ptr @__ImageBase to i64)) to i32), i32 trunc (i64 sub nuw nsw (i64 ptrtoint (ptr @"??_R1A@?0A@EA@runtime_error@std@@8" to i64), i64 ptrtoint (ptr @__ImageBase to i64)) to i32), i32 trunc (i64 sub nuw nsw (i64 ptrtoint (ptr @"??_R1A@?0A@EA@exception@std@@8" to i64), i64 ptrtoint (ptr @__ImageBase to i64)) to i32), i32 0], comdat
@"??_R1A@?0A@EA@runtime_error@std@@8" = linkonce_odr constant %rtti.BaseClassDescriptor { i32 trunc (i64 sub nuw nsw (i64 ptrtoint (ptr @"??_R0?AVruntime_error@std@@@8" to i64), i64 ptrtoint (ptr @__ImageBase to i64)) to i32), i32 1, i32 0, i32 -1, i32 0, i32 64, i32 trunc (i64 sub nuw nsw (i64 ptrtoint (ptr @"??_R3runtime_error@std@@8" to i64), i64 ptrtoint (ptr @__ImageBase to i64)) to i32) }, comdat
@"??_R3runtime_error@std@@8" = linkonce_odr constant %rtti.ClassHierarchyDescriptor { i32 0, i32 0, i32 2, i32 trunc (i64 sub nuw nsw (i64 ptrtoint (ptr @"??_R2runtime_error@std@@8" to i64), i64 ptrtoint (ptr @__ImageBase to i64)) to i32) }, comdat
@"??_R2runtime_error@std@@8" = linkonce_odr constant [3 x i32] [i32 trunc (i64 sub nuw nsw (i64 ptrtoint (ptr @"??_R1A@?0A@EA@runtime_error@std@@8" to i64), i64 ptrtoint (ptr @__ImageBase to i64)) to i32), i32 trunc (i64 sub nuw nsw (i64 ptrtoint (ptr @"??_R1A@?0A@EA@exception@std@@8" to i64), i64 ptrtoint (ptr @__ImageBase to i64)) to i32), i32 0], comdat
@5 = private unnamed_addr constant { [3 x ptr] } { [3 x ptr] [ptr @"??_R4system_error@std@@6B@", ptr @"??_Esystem_error@std@@UEAAPEAXI@Z", ptr @"?what@exception@std@@UEBAPEBDXZ"] }, comdat($"??_7system_error@std@@6B@")
@"??_R4system_error@std@@6B@" = linkonce_odr constant %rtti.CompleteObjectLocator { i32 1, i32 0, i32 0, i32 trunc (i64 sub nuw nsw (i64 ptrtoint (ptr @"??_R0?AVsystem_error@std@@@8" to i64), i64 ptrtoint (ptr @__ImageBase to i64)) to i32), i32 trunc (i64 sub nuw nsw (i64 ptrtoint (ptr @"??_R3system_error@std@@8" to i64), i64 ptrtoint (ptr @__ImageBase to i64)) to i32), i32 trunc (i64 sub nuw nsw (i64 ptrtoint (ptr @"??_R4system_error@std@@6B@" to i64), i64 ptrtoint (ptr @__ImageBase to i64)) to i32) }, comdat
@6 = private unnamed_addr constant { [3 x ptr] } { [3 x ptr] [ptr @"??_R4_System_error@std@@6B@", ptr @"??_E_System_error@std@@UEAAPEAXI@Z", ptr @"?what@exception@std@@UEBAPEBDXZ"] }, comdat($"??_7_System_error@std@@6B@")
@"??_R4_System_error@std@@6B@" = linkonce_odr constant %rtti.CompleteObjectLocator { i32 1, i32 0, i32 0, i32 trunc (i64 sub nuw nsw (i64 ptrtoint (ptr @"??_R0?AV_System_error@std@@@8" to i64), i64 ptrtoint (ptr @__ImageBase to i64)) to i32), i32 trunc (i64 sub nuw nsw (i64 ptrtoint (ptr @"??_R3_System_error@std@@8" to i64), i64 ptrtoint (ptr @__ImageBase to i64)) to i32), i32 trunc (i64 sub nuw nsw (i64 ptrtoint (ptr @"??_R4_System_error@std@@6B@" to i64), i64 ptrtoint (ptr @__ImageBase to i64)) to i32) }, comdat
@"??_C@_02LMMGGCAJ@?3?5?$AA@" = linkonce_odr dso_local unnamed_addr constant [3 x i8] c": \00", comdat, align 1
@7 = private unnamed_addr constant { [3 x ptr] } { [3 x ptr] [ptr @"??_R4runtime_error@std@@6B@", ptr @"??_Eruntime_error@std@@UEAAPEAXI@Z", ptr @"?what@exception@std@@UEBAPEBDXZ"] }, comdat($"??_7runtime_error@std@@6B@")
@"??_R4runtime_error@std@@6B@" = linkonce_odr constant %rtti.CompleteObjectLocator { i32 1, i32 0, i32 0, i32 trunc (i64 sub nuw nsw (i64 ptrtoint (ptr @"??_R0?AVruntime_error@std@@@8" to i64), i64 ptrtoint (ptr @__ImageBase to i64)) to i32), i32 trunc (i64 sub nuw nsw (i64 ptrtoint (ptr @"??_R3runtime_error@std@@8" to i64), i64 ptrtoint (ptr @__ImageBase to i64)) to i32), i32 trunc (i64 sub nuw nsw (i64 ptrtoint (ptr @"??_R4runtime_error@std@@6B@" to i64), i64 ptrtoint (ptr @__ImageBase to i64)) to i32) }, comdat
@"?_Psave@?$_Facetptr@V?$ctype@D@std@@@std@@2PEBVfacet@locale@2@EB" = linkonce_odr dso_local local_unnamed_addr global ptr null, comdat, align 8
@"?id@?$ctype@D@std@@2V0locale@2@A" = external dso_local local_unnamed_addr global %"class.std::locale::id", align 8
@"?_Id_cnt@id@locale@std@@0HA" = external dso_local local_unnamed_addr global i32, align 4
@"??_C@_00CNPNBAHC@?$AA@" = linkonce_odr dso_local unnamed_addr constant [1 x i8] zeroinitializer, comdat, align 1
@"??_C@_0BA@ELKIONDK@bad?5locale?5name?$AA@" = linkonce_odr dso_local unnamed_addr constant [16 x i8] c"bad locale name\00", comdat, align 1
@8 = private unnamed_addr constant { [12 x ptr] } { [12 x ptr] [ptr @"??_R4?$ctype@D@std@@6B@", ptr @"??_E?$ctype@D@std@@MEAAPEAXI@Z", ptr @"?_Incref@facet@locale@std@@UEAAXXZ", ptr @"?_Decref@facet@locale@std@@UEAAPEAV_Facet_base@3@XZ", ptr @"?do_tolower@?$ctype@D@std@@MEBAPEBDPEADPEBD@Z", ptr @"?do_tolower@?$ctype@D@std@@MEBADD@Z", ptr @"?do_toupper@?$ctype@D@std@@MEBAPEBDPEADPEBD@Z", ptr @"?do_toupper@?$ctype@D@std@@MEBADD@Z", ptr @"?do_widen@?$ctype@D@std@@MEBAPEBDPEBD0PEAD@Z", ptr @"?do_widen@?$ctype@D@std@@MEBADD@Z", ptr @"?do_narrow@?$ctype@D@std@@MEBAPEBDPEBD0DPEAD@Z", ptr @"?do_narrow@?$ctype@D@std@@MEBADDD@Z"] }, comdat($"??_7?$ctype@D@std@@6B@")
@"??_R4?$ctype@D@std@@6B@" = linkonce_odr constant %rtti.CompleteObjectLocator { i32 1, i32 0, i32 0, i32 trunc (i64 sub nuw nsw (i64 ptrtoint (ptr @"??_R0?AV?$ctype@D@std@@@8" to i64), i64 ptrtoint (ptr @__ImageBase to i64)) to i32), i32 trunc (i64 sub nuw nsw (i64 ptrtoint (ptr @"??_R3?$ctype@D@std@@8" to i64), i64 ptrtoint (ptr @__ImageBase to i64)) to i32), i32 trunc (i64 sub nuw nsw (i64 ptrtoint (ptr @"??_R4?$ctype@D@std@@6B@" to i64), i64 ptrtoint (ptr @__ImageBase to i64)) to i32) }, comdat
@"??_R0?AV?$ctype@D@std@@@8" = linkonce_odr global %rtti.TypeDescriptor19 { ptr @"??_7type_info@@6B@", ptr null, [20 x i8] c".?AV?$ctype@D@std@@\00" }, comdat
@"??_R3?$ctype@D@std@@8" = linkonce_odr constant %rtti.ClassHierarchyDescriptor { i32 0, i32 1, i32 6, i32 trunc (i64 sub nuw nsw (i64 ptrtoint (ptr @"??_R2?$ctype@D@std@@8" to i64), i64 ptrtoint (ptr @__ImageBase to i64)) to i32) }, comdat
@"??_R2?$ctype@D@std@@8" = linkonce_odr constant [7 x i32] [i32 trunc (i64 sub nuw nsw (i64 ptrtoint (ptr @"??_R1A@?0A@EA@?$ctype@D@std@@8" to i64), i64 ptrtoint (ptr @__ImageBase to i64)) to i32), i32 trunc (i64 sub nuw nsw (i64 ptrtoint (ptr @"??_R1A@?0A@EA@ctype_base@std@@8" to i64), i64 ptrtoint (ptr @__ImageBase to i64)) to i32), i32 trunc (i64 sub nuw nsw (i64 ptrtoint (ptr @"??_R1A@?0A@EA@facet@locale@std@@8" to i64), i64 ptrtoint (ptr @__ImageBase to i64)) to i32), i32 trunc (i64 sub nuw nsw (i64 ptrtoint (ptr @"??_R1A@?0A@EA@_Facet_base@std@@8" to i64), i64 ptrtoint (ptr @__ImageBase to i64)) to i32), i32 trunc (i64 sub nuw nsw (i64 ptrtoint (ptr @"??_R17?0A@EA@_Crt_new_delete@std@@8" to i64), i64 ptrtoint (ptr @__ImageBase to i64)) to i32), i32 trunc (i64 sub nuw nsw (i64 ptrtoint (ptr @"??_R1A@?0A@EA@_Ctype_constants_base@std@@8" to i64), i64 ptrtoint (ptr @__ImageBase to i64)) to i32), i32 0], comdat
@"??_R1A@?0A@EA@?$ctype@D@std@@8" = linkonce_odr constant %rtti.BaseClassDescriptor { i32 trunc (i64 sub nuw nsw (i64 ptrtoint (ptr @"??_R0?AV?$ctype@D@std@@@8" to i64), i64 ptrtoint (ptr @__ImageBase to i64)) to i32), i32 5, i32 0, i32 -1, i32 0, i32 64, i32 trunc (i64 sub nuw nsw (i64 ptrtoint (ptr @"??_R3?$ctype@D@std@@8" to i64), i64 ptrtoint (ptr @__ImageBase to i64)) to i32) }, comdat
@"??_R1A@?0A@EA@ctype_base@std@@8" = linkonce_odr constant %rtti.BaseClassDescriptor { i32 trunc (i64 sub nuw nsw (i64 ptrtoint (ptr @"??_R0?AUctype_base@std@@@8" to i64), i64 ptrtoint (ptr @__ImageBase to i64)) to i32), i32 4, i32 0, i32 -1, i32 0, i32 64, i32 trunc (i64 sub nuw nsw (i64 ptrtoint (ptr @"??_R3ctype_base@std@@8" to i64), i64 ptrtoint (ptr @__ImageBase to i64)) to i32) }, comdat
@"??_R0?AUctype_base@std@@@8" = linkonce_odr global %rtti.TypeDescriptor20 { ptr @"??_7type_info@@6B@", ptr null, [21 x i8] c".?AUctype_base@std@@\00" }, comdat
@"??_R3ctype_base@std@@8" = linkonce_odr constant %rtti.ClassHierarchyDescriptor { i32 0, i32 1, i32 5, i32 trunc (i64 sub nuw nsw (i64 ptrtoint (ptr @"??_R2ctype_base@std@@8" to i64), i64 ptrtoint (ptr @__ImageBase to i64)) to i32) }, comdat
@"??_R2ctype_base@std@@8" = linkonce_odr constant [6 x i32] [i32 trunc (i64 sub nuw nsw (i64 ptrtoint (ptr @"??_R1A@?0A@EA@ctype_base@std@@8" to i64), i64 ptrtoint (ptr @__ImageBase to i64)) to i32), i32 trunc (i64 sub nuw nsw (i64 ptrtoint (ptr @"??_R1A@?0A@EA@facet@locale@std@@8" to i64), i64 ptrtoint (ptr @__ImageBase to i64)) to i32), i32 trunc (i64 sub nuw nsw (i64 ptrtoint (ptr @"??_R1A@?0A@EA@_Facet_base@std@@8" to i64), i64 ptrtoint (ptr @__ImageBase to i64)) to i32), i32 trunc (i64 sub nuw nsw (i64 ptrtoint (ptr @"??_R17?0A@EA@_Crt_new_delete@std@@8" to i64), i64 ptrtoint (ptr @__ImageBase to i64)) to i32), i32 trunc (i64 sub nuw nsw (i64 ptrtoint (ptr @"??_R1A@?0A@EA@_Ctype_constants_base@std@@8" to i64), i64 ptrtoint (ptr @__ImageBase to i64)) to i32), i32 0], comdat
@"??_R1A@?0A@EA@facet@locale@std@@8" = linkonce_odr constant %rtti.BaseClassDescriptor { i32 trunc (i64 sub nuw nsw (i64 ptrtoint (ptr @"??_R0?AVfacet@locale@std@@@8" to i64), i64 ptrtoint (ptr @__ImageBase to i64)) to i32), i32 2, i32 0, i32 -1, i32 0, i32 64, i32 trunc (i64 sub nuw nsw (i64 ptrtoint (ptr @"??_R3facet@locale@std@@8" to i64), i64 ptrtoint (ptr @__ImageBase to i64)) to i32) }, comdat
@"??_R0?AVfacet@locale@std@@@8" = linkonce_odr global %rtti.TypeDescriptor22 { ptr @"??_7type_info@@6B@", ptr null, [23 x i8] c".?AVfacet@locale@std@@\00" }, comdat
@"??_R3facet@locale@std@@8" = linkonce_odr constant %rtti.ClassHierarchyDescriptor { i32 0, i32 1, i32 3, i32 trunc (i64 sub nuw nsw (i64 ptrtoint (ptr @"??_R2facet@locale@std@@8" to i64), i64 ptrtoint (ptr @__ImageBase to i64)) to i32) }, comdat
@"??_R2facet@locale@std@@8" = linkonce_odr constant [4 x i32] [i32 trunc (i64 sub nuw nsw (i64 ptrtoint (ptr @"??_R1A@?0A@EA@facet@locale@std@@8" to i64), i64 ptrtoint (ptr @__ImageBase to i64)) to i32), i32 trunc (i64 sub nuw nsw (i64 ptrtoint (ptr @"??_R1A@?0A@EA@_Facet_base@std@@8" to i64), i64 ptrtoint (ptr @__ImageBase to i64)) to i32), i32 trunc (i64 sub nuw nsw (i64 ptrtoint (ptr @"??_R17?0A@EA@_Crt_new_delete@std@@8" to i64), i64 ptrtoint (ptr @__ImageBase to i64)) to i32), i32 0], comdat
@"??_R1A@?0A@EA@_Facet_base@std@@8" = linkonce_odr constant %rtti.BaseClassDescriptor { i32 trunc (i64 sub nuw nsw (i64 ptrtoint (ptr @"??_R0?AV_Facet_base@std@@@8" to i64), i64 ptrtoint (ptr @__ImageBase to i64)) to i32), i32 0, i32 0, i32 -1, i32 0, i32 64, i32 trunc (i64 sub nuw nsw (i64 ptrtoint (ptr @"??_R3_Facet_base@std@@8" to i64), i64 ptrtoint (ptr @__ImageBase to i64)) to i32) }, comdat
@"??_R0?AV_Facet_base@std@@@8" = linkonce_odr global %rtti.TypeDescriptor21 { ptr @"??_7type_info@@6B@", ptr null, [22 x i8] c".?AV_Facet_base@std@@\00" }, comdat
@"??_R3_Facet_base@std@@8" = linkonce_odr constant %rtti.ClassHierarchyDescriptor { i32 0, i32 0, i32 1, i32 trunc (i64 sub nuw nsw (i64 ptrtoint (ptr @"??_R2_Facet_base@std@@8" to i64), i64 ptrtoint (ptr @__ImageBase to i64)) to i32) }, comdat
@"??_R2_Facet_base@std@@8" = linkonce_odr constant [2 x i32] [i32 trunc (i64 sub nuw nsw (i64 ptrtoint (ptr @"??_R1A@?0A@EA@_Facet_base@std@@8" to i64), i64 ptrtoint (ptr @__ImageBase to i64)) to i32), i32 0], comdat
@"??_R17?0A@EA@_Crt_new_delete@std@@8" = linkonce_odr constant %rtti.BaseClassDescriptor { i32 trunc (i64 sub nuw nsw (i64 ptrtoint (ptr @"??_R0?AU_Crt_new_delete@std@@@8" to i64), i64 ptrtoint (ptr @__ImageBase to i64)) to i32), i32 0, i32 8, i32 -1, i32 0, i32 64, i32 trunc (i64 sub nuw nsw (i64 ptrtoint (ptr @"??_R3_Crt_new_delete@std@@8" to i64), i64 ptrtoint (ptr @__ImageBase to i64)) to i32) }, comdat
@"??_R0?AU_Crt_new_delete@std@@@8" = linkonce_odr global %rtti.TypeDescriptor25 { ptr @"??_7type_info@@6B@", ptr null, [26 x i8] c".?AU_Crt_new_delete@std@@\00" }, comdat
@"??_R3_Crt_new_delete@std@@8" = linkonce_odr constant %rtti.ClassHierarchyDescriptor { i32 0, i32 0, i32 1, i32 trunc (i64 sub nuw nsw (i64 ptrtoint (ptr @"??_R2_Crt_new_delete@std@@8" to i64), i64 ptrtoint (ptr @__ImageBase to i64)) to i32) }, comdat
@"??_R2_Crt_new_delete@std@@8" = linkonce_odr constant [2 x i32] [i32 trunc (i64 sub nuw nsw (i64 ptrtoint (ptr @"??_R1A@?0A@EA@_Crt_new_delete@std@@8" to i64), i64 ptrtoint (ptr @__ImageBase to i64)) to i32), i32 0], comdat
@"??_R1A@?0A@EA@_Crt_new_delete@std@@8" = linkonce_odr constant %rtti.BaseClassDescriptor { i32 trunc (i64 sub nuw nsw (i64 ptrtoint (ptr @"??_R0?AU_Crt_new_delete@std@@@8" to i64), i64 ptrtoint (ptr @__ImageBase to i64)) to i32), i32 0, i32 0, i32 -1, i32 0, i32 64, i32 trunc (i64 sub nuw nsw (i64 ptrtoint (ptr @"??_R3_Crt_new_delete@std@@8" to i64), i64 ptrtoint (ptr @__ImageBase to i64)) to i32) }, comdat
@"??_R1A@?0A@EA@_Ctype_constants_base@std@@8" = linkonce_odr constant %rtti.BaseClassDescriptor { i32 trunc (i64 sub nuw nsw (i64 ptrtoint (ptr @"??_R0?AU_Ctype_constants_base@std@@@8" to i64), i64 ptrtoint (ptr @__ImageBase to i64)) to i32), i32 0, i32 0, i32 -1, i32 0, i32 64, i32 trunc (i64 sub nuw nsw (i64 ptrtoint (ptr @"??_R3_Ctype_constants_base@std@@8" to i64), i64 ptrtoint (ptr @__ImageBase to i64)) to i32) }, comdat
@"??_R0?AU_Ctype_constants_base@std@@@8" = linkonce_odr global %rtti.TypeDescriptor31 { ptr @"??_7type_info@@6B@", ptr null, [32 x i8] c".?AU_Ctype_constants_base@std@@\00" }, comdat
@"??_R3_Ctype_constants_base@std@@8" = linkonce_odr constant %rtti.ClassHierarchyDescriptor { i32 0, i32 0, i32 1, i32 trunc (i64 sub nuw nsw (i64 ptrtoint (ptr @"??_R2_Ctype_constants_base@std@@8" to i64), i64 ptrtoint (ptr @__ImageBase to i64)) to i32) }, comdat
@"??_R2_Ctype_constants_base@std@@8" = linkonce_odr constant [2 x i32] [i32 trunc (i64 sub nuw nsw (i64 ptrtoint (ptr @"??_R1A@?0A@EA@_Ctype_constants_base@std@@8" to i64), i64 ptrtoint (ptr @__ImageBase to i64)) to i32), i32 0], comdat
@9 = private unnamed_addr constant { [4 x ptr] } { [4 x ptr] [ptr @"??_R4ctype_base@std@@6B@", ptr @"??_Ectype_base@std@@UEAAPEAXI@Z", ptr @"?_Incref@facet@locale@std@@UEAAXXZ", ptr @"?_Decref@facet@locale@std@@UEAAPEAV_Facet_base@3@XZ"] }, comdat($"??_7ctype_base@std@@6B@")
@"??_R4ctype_base@std@@6B@" = linkonce_odr constant %rtti.CompleteObjectLocator { i32 1, i32 0, i32 0, i32 trunc (i64 sub nuw nsw (i64 ptrtoint (ptr @"??_R0?AUctype_base@std@@@8" to i64), i64 ptrtoint (ptr @__ImageBase to i64)) to i32), i32 trunc (i64 sub nuw nsw (i64 ptrtoint (ptr @"??_R3ctype_base@std@@8" to i64), i64 ptrtoint (ptr @__ImageBase to i64)) to i32), i32 trunc (i64 sub nuw nsw (i64 ptrtoint (ptr @"??_R4ctype_base@std@@6B@" to i64), i64 ptrtoint (ptr @__ImageBase to i64)) to i32) }, comdat
@10 = private unnamed_addr constant { [4 x ptr] } { [4 x ptr] [ptr @"??_R4facet@locale@std@@6B@", ptr @"??_Efacet@locale@std@@MEAAPEAXI@Z", ptr @"?_Incref@facet@locale@std@@UEAAXXZ", ptr @"?_Decref@facet@locale@std@@UEAAPEAV_Facet_base@3@XZ"] }, comdat($"??_7facet@locale@std@@6B@")
@"??_R4facet@locale@std@@6B@" = linkonce_odr constant %rtti.CompleteObjectLocator { i32 1, i32 0, i32 0, i32 trunc (i64 sub nuw nsw (i64 ptrtoint (ptr @"??_R0?AVfacet@locale@std@@@8" to i64), i64 ptrtoint (ptr @__ImageBase to i64)) to i32), i32 trunc (i64 sub nuw nsw (i64 ptrtoint (ptr @"??_R3facet@locale@std@@8" to i64), i64 ptrtoint (ptr @__ImageBase to i64)) to i32), i32 trunc (i64 sub nuw nsw (i64 ptrtoint (ptr @"??_R4facet@locale@std@@6B@" to i64), i64 ptrtoint (ptr @__ImageBase to i64)) to i32) }, comdat
@11 = private unnamed_addr constant { [4 x ptr] } { [4 x ptr] [ptr @"??_R4_Facet_base@std@@6B@", ptr @"??_E_Facet_base@std@@UEAAPEAXI@Z", ptr @_purecall, ptr @_purecall] }, comdat($"??_7_Facet_base@std@@6B@")
@"??_R4_Facet_base@std@@6B@" = linkonce_odr constant %rtti.CompleteObjectLocator { i32 1, i32 0, i32 0, i32 trunc (i64 sub nuw nsw (i64 ptrtoint (ptr @"??_R0?AV_Facet_base@std@@@8" to i64), i64 ptrtoint (ptr @__ImageBase to i64)) to i32), i32 trunc (i64 sub nuw nsw (i64 ptrtoint (ptr @"??_R3_Facet_base@std@@8" to i64), i64 ptrtoint (ptr @__ImageBase to i64)) to i32), i32 trunc (i64 sub nuw nsw (i64 ptrtoint (ptr @"??_R4_Facet_base@std@@6B@" to i64), i64 ptrtoint (ptr @__ImageBase to i64)) to i32) }, comdat
@"??_R0?AVbad_cast@std@@@8" = linkonce_odr global %rtti.TypeDescriptor18 { ptr @"??_7type_info@@6B@", ptr null, [19 x i8] c".?AVbad_cast@std@@\00" }, comdat
@"_CT??_R0?AVbad_cast@std@@@8??0bad_cast@std@@QEAA@AEBV01@@Z24" = linkonce_odr unnamed_addr constant %eh.CatchableType { i32 0, i32 trunc (i64 sub nuw nsw (i64 ptrtoint (ptr @"??_R0?AVbad_cast@std@@@8" to i64), i64 ptrtoint (ptr @__ImageBase to i64)) to i32), i32 0, i32 -1, i32 0, i32 24, i32 trunc (i64 sub nuw nsw (i64 ptrtoint (ptr @"??0bad_cast@std@@QEAA@AEBV01@@Z" to i64), i64 ptrtoint (ptr @__ImageBase to i64)) to i32) }, section ".xdata", comdat
@"_CTA2?AVbad_cast@std@@" = linkonce_odr unnamed_addr constant %eh.CatchableTypeArray.2 { i32 2, [2 x i32] [i32 trunc (i64 sub nuw nsw (i64 ptrtoint (ptr @"_CT??_R0?AVbad_cast@std@@@8??0bad_cast@std@@QEAA@AEBV01@@Z24" to i64), i64 ptrtoint (ptr @__ImageBase to i64)) to i32), i32 trunc (i64 sub nuw nsw (i64 ptrtoint (ptr @"_CT??_R0?AVexception@std@@@8??0exception@std@@QEAA@AEBV01@@Z24" to i64), i64 ptrtoint (ptr @__ImageBase to i64)) to i32)] }, section ".xdata", comdat
@"_TI2?AVbad_cast@std@@" = linkonce_odr unnamed_addr constant %eh.ThrowInfo { i32 0, i32 trunc (i64 sub nuw nsw (i64 ptrtoint (ptr @"??1exception@std@@UEAA@XZ" to i64), i64 ptrtoint (ptr @__ImageBase to i64)) to i32), i32 0, i32 trunc (i64 sub nuw nsw (i64 ptrtoint (ptr @"_CTA2?AVbad_cast@std@@" to i64), i64 ptrtoint (ptr @__ImageBase to i64)) to i32) }, section ".xdata", comdat
@"??_C@_08EPJLHIJG@bad?5cast?$AA@" = linkonce_odr dso_local unnamed_addr constant [9 x i8] c"bad cast\00", comdat, align 1
@12 = private unnamed_addr constant { [3 x ptr] } { [3 x ptr] [ptr @"??_R4bad_cast@std@@6B@", ptr @"??_Ebad_cast@std@@UEAAPEAXI@Z", ptr @"?what@exception@std@@UEBAPEBDXZ"] }, comdat($"??_7bad_cast@std@@6B@")
@"??_R4bad_cast@std@@6B@" = linkonce_odr constant %rtti.CompleteObjectLocator { i32 1, i32 0, i32 0, i32 trunc (i64 sub nuw nsw (i64 ptrtoint (ptr @"??_R0?AVbad_cast@std@@@8" to i64), i64 ptrtoint (ptr @__ImageBase to i64)) to i32), i32 trunc (i64 sub nuw nsw (i64 ptrtoint (ptr @"??_R3bad_cast@std@@8" to i64), i64 ptrtoint (ptr @__ImageBase to i64)) to i32), i32 trunc (i64 sub nuw nsw (i64 ptrtoint (ptr @"??_R4bad_cast@std@@6B@" to i64), i64 ptrtoint (ptr @__ImageBase to i64)) to i32) }, comdat
@"??_R3bad_cast@std@@8" = linkonce_odr constant %rtti.ClassHierarchyDescriptor { i32 0, i32 0, i32 2, i32 trunc (i64 sub nuw nsw (i64 ptrtoint (ptr @"??_R2bad_cast@std@@8" to i64), i64 ptrtoint (ptr @__ImageBase to i64)) to i32) }, comdat
@"??_R2bad_cast@std@@8" = linkonce_odr constant [3 x i32] [i32 trunc (i64 sub nuw nsw (i64 ptrtoint (ptr @"??_R1A@?0A@EA@bad_cast@std@@8" to i64), i64 ptrtoint (ptr @__ImageBase to i64)) to i32), i32 trunc (i64 sub nuw nsw (i64 ptrtoint (ptr @"??_R1A@?0A@EA@exception@std@@8" to i64), i64 ptrtoint (ptr @__ImageBase to i64)) to i32), i32 0], comdat
@"??_R1A@?0A@EA@bad_cast@std@@8" = linkonce_odr constant %rtti.BaseClassDescriptor { i32 trunc (i64 sub nuw nsw (i64 ptrtoint (ptr @"??_R0?AVbad_cast@std@@@8" to i64), i64 ptrtoint (ptr @__ImageBase to i64)) to i32), i32 1, i32 0, i32 -1, i32 0, i32 64, i32 trunc (i64 sub nuw nsw (i64 ptrtoint (ptr @"??_R3bad_cast@std@@8" to i64), i64 ptrtoint (ptr @__ImageBase to i64)) to i32) }, comdat
@"?_Psave@?$_Facetptr@V?$num_get@DV?$istreambuf_iterator@DU?$char_traits@D@std@@@std@@@std@@@std@@2PEBVfacet@locale@2@EB" = linkonce_odr dso_local local_unnamed_addr global ptr null, comdat, align 8
@13 = private unnamed_addr constant { [15 x ptr] } { [15 x ptr] [ptr @"??_R4?$num_get@DV?$istreambuf_iterator@DU?$char_traits@D@std@@@std@@@std@@6B@", ptr @"??_E?$num_get@DV?$istreambuf_iterator@DU?$char_traits@D@std@@@std@@@std@@MEAAPEAXI@Z", ptr @"?_Incref@facet@locale@std@@UEAAXXZ", ptr @"?_Decref@facet@locale@std@@UEAAPEAV_Facet_base@3@XZ", ptr @"?do_get@?$num_get@DV?$istreambuf_iterator@DU?$char_traits@D@std@@@std@@@std@@MEBA?AV?$istreambuf_iterator@DU?$char_traits@D@std@@@2@V32@0AEAVios_base@2@AEAHAEAPEAX@Z", ptr @"?do_get@?$num_get@DV?$istreambuf_iterator@DU?$char_traits@D@std@@@std@@@std@@MEBA?AV?$istreambuf_iterator@DU?$char_traits@D@std@@@2@V32@0AEAVios_base@2@AEAHAEAO@Z", ptr @"?do_get@?$num_get@DV?$istreambuf_iterator@DU?$char_traits@D@std@@@std@@@std@@MEBA?AV?$istreambuf_iterator@DU?$char_traits@D@std@@@2@V32@0AEAVios_base@2@AEAHAEAN@Z", ptr @"?do_get@?$num_get@DV?$istreambuf_iterator@DU?$char_traits@D@std@@@std@@@std@@MEBA?AV?$istreambuf_iterator@DU?$char_traits@D@std@@@2@V32@0AEAVios_base@2@AEAHAEAM@Z", ptr @"?do_get@?$num_get@DV?$istreambuf_iterator@DU?$char_traits@D@std@@@std@@@std@@MEBA?AV?$istreambuf_iterator@DU?$char_traits@D@std@@@2@V32@0AEAVios_base@2@AEAHAEA_K@Z", ptr @"?do_get@?$num_get@DV?$istreambuf_iterator@DU?$char_traits@D@std@@@std@@@std@@MEBA?AV?$istreambuf_iterator@DU?$char_traits@D@std@@@2@V32@0AEAVios_base@2@AEAHAEA_J@Z", ptr @"?do_get@?$num_get@DV?$istreambuf_iterator@DU?$char_traits@D@std@@@std@@@std@@MEBA?AV?$istreambuf_iterator@DU?$char_traits@D@std@@@2@V32@0AEAVios_base@2@AEAHAEAK@Z", ptr @"?do_get@?$num_get@DV?$istreambuf_iterator@DU?$char_traits@D@std@@@std@@@std@@MEBA?AV?$istreambuf_iterator@DU?$char_traits@D@std@@@2@V32@0AEAVios_base@2@AEAHAEAJ@Z", ptr @"?do_get@?$num_get@DV?$istreambuf_iterator@DU?$char_traits@D@std@@@std@@@std@@MEBA?AV?$istreambuf_iterator@DU?$char_traits@D@std@@@2@V32@0AEAVios_base@2@AEAHAEAI@Z", ptr @"?do_get@?$num_get@DV?$istreambuf_iterator@DU?$char_traits@D@std@@@std@@@std@@MEBA?AV?$istreambuf_iterator@DU?$char_traits@D@std@@@2@V32@0AEAVios_base@2@AEAHAEAG@Z", ptr @"?do_get@?$num_get@DV?$istreambuf_iterator@DU?$char_traits@D@std@@@std@@@std@@MEBA?AV?$istreambuf_iterator@DU?$char_traits@D@std@@@2@V32@0AEAVios_base@2@AEAHAEA_N@Z"] }, comdat($"??_7?$num_get@DV?$istreambuf_iterator@DU?$char_traits@D@std@@@std@@@std@@6B@")
@"??_R4?$num_get@DV?$istreambuf_iterator@DU?$char_traits@D@std@@@std@@@std@@6B@" = linkonce_odr constant %rtti.CompleteObjectLocator { i32 1, i32 0, i32 0, i32 trunc (i64 sub nuw nsw (i64 ptrtoint (ptr @"??_R0?AV?$num_get@DV?$istreambuf_iterator@DU?$char_traits@D@std@@@std@@@std@@@8" to i64), i64 ptrtoint (ptr @__ImageBase to i64)) to i32), i32 trunc (i64 sub nuw nsw (i64 ptrtoint (ptr @"??_R3?$num_get@DV?$istreambuf_iterator@DU?$char_traits@D@std@@@std@@@std@@8" to i64), i64 ptrtoint (ptr @__ImageBase to i64)) to i32), i32 trunc (i64 sub nuw nsw (i64 ptrtoint (ptr @"??_R4?$num_get@DV?$istreambuf_iterator@DU?$char_traits@D@std@@@std@@@std@@6B@" to i64), i64 ptrtoint (ptr @__ImageBase to i64)) to i32) }, comdat
@"??_R0?AV?$num_get@DV?$istreambuf_iterator@DU?$char_traits@D@std@@@std@@@std@@@8" = linkonce_odr global %rtti.TypeDescriptor73 { ptr @"??_7type_info@@6B@", ptr null, [74 x i8] c".?AV?$num_get@DV?$istreambuf_iterator@DU?$char_traits@D@std@@@std@@@std@@\00" }, comdat
@"??_R3?$num_get@DV?$istreambuf_iterator@DU?$char_traits@D@std@@@std@@@std@@8" = linkonce_odr constant %rtti.ClassHierarchyDescriptor { i32 0, i32 1, i32 4, i32 trunc (i64 sub nuw nsw (i64 ptrtoint (ptr @"??_R2?$num_get@DV?$istreambuf_iterator@DU?$char_traits@D@std@@@std@@@std@@8" to i64), i64 ptrtoint (ptr @__ImageBase to i64)) to i32) }, comdat
@"??_R2?$num_get@DV?$istreambuf_iterator@DU?$char_traits@D@std@@@std@@@std@@8" = linkonce_odr constant [5 x i32] [i32 trunc (i64 sub nuw nsw (i64 ptrtoint (ptr @"??_R1A@?0A@EA@?$num_get@DV?$istreambuf_iterator@DU?$char_traits@D@std@@@std@@@std@@8" to i64), i64 ptrtoint (ptr @__ImageBase to i64)) to i32), i32 trunc (i64 sub nuw nsw (i64 ptrtoint (ptr @"??_R1A@?0A@EA@facet@locale@std@@8" to i64), i64 ptrtoint (ptr @__ImageBase to i64)) to i32), i32 trunc (i64 sub nuw nsw (i64 ptrtoint (ptr @"??_R1A@?0A@EA@_Facet_base@std@@8" to i64), i64 ptrtoint (ptr @__ImageBase to i64)) to i32), i32 trunc (i64 sub nuw nsw (i64 ptrtoint (ptr @"??_R17?0A@EA@_Crt_new_delete@std@@8" to i64), i64 ptrtoint (ptr @__ImageBase to i64)) to i32), i32 0], comdat
@"??_R1A@?0A@EA@?$num_get@DV?$istreambuf_iterator@DU?$char_traits@D@std@@@std@@@std@@8" = linkonce_odr constant %rtti.BaseClassDescriptor { i32 trunc (i64 sub nuw nsw (i64 ptrtoint (ptr @"??_R0?AV?$num_get@DV?$istreambuf_iterator@DU?$char_traits@D@std@@@std@@@std@@@8" to i64), i64 ptrtoint (ptr @__ImageBase to i64)) to i32), i32 3, i32 0, i32 -1, i32 0, i32 64, i32 trunc (i64 sub nuw nsw (i64 ptrtoint (ptr @"??_R3?$num_get@DV?$istreambuf_iterator@DU?$char_traits@D@std@@@std@@@std@@8" to i64), i64 ptrtoint (ptr @__ImageBase to i64)) to i32) }, comdat
@"?_Src@?1???$_Parse_int_with_locale@$0A@@?$num_get@DV?$istreambuf_iterator@DU?$char_traits@D@std@@@std@@@std@@CA?AU_Num_get_parse_result@2@QEADAEAV?$istreambuf_iterator@DU?$char_traits@D@std@@@2@1HAEBVlocale@2@@Z@4QBDB" = linkonce_odr dso_local constant [27 x i8] c"0123456789ABCDEFabcdef-+Xx\00", comdat, align 16
@"?_Psave@?$_Facetptr@V?$numpunct@D@std@@@std@@2PEBVfacet@locale@2@EB" = linkonce_odr dso_local local_unnamed_addr global ptr null, comdat, align 8
@14 = private unnamed_addr constant { [9 x ptr] } { [9 x ptr] [ptr @"??_R4?$numpunct@D@std@@6B@", ptr @"??_E?$numpunct@D@std@@MEAAPEAXI@Z", ptr @"?_Incref@facet@locale@std@@UEAAXXZ", ptr @"?_Decref@facet@locale@std@@UEAAPEAV_Facet_base@3@XZ", ptr @"?do_decimal_point@?$numpunct@D@std@@MEBADXZ", ptr @"?do_thousands_sep@?$numpunct@D@std@@MEBADXZ", ptr @"?do_grouping@?$numpunct@D@std@@MEBA?AV?$basic_string@DU?$char_traits@D@std@@V?$allocator@D@2@@2@XZ", ptr @"?do_falsename@?$numpunct@D@std@@MEBA?AV?$basic_string@DU?$char_traits@D@std@@V?$allocator@D@2@@2@XZ", ptr @"?do_truename@?$numpunct@D@std@@MEBA?AV?$basic_string@DU?$char_traits@D@std@@V?$allocator@D@2@@2@XZ"] }, comdat($"??_7?$numpunct@D@std@@6B@")
@"??_R4?$numpunct@D@std@@6B@" = linkonce_odr constant %rtti.CompleteObjectLocator { i32 1, i32 0, i32 0, i32 trunc (i64 sub nuw nsw (i64 ptrtoint (ptr @"??_R0?AV?$numpunct@D@std@@@8" to i64), i64 ptrtoint (ptr @__ImageBase to i64)) to i32), i32 trunc (i64 sub nuw nsw (i64 ptrtoint (ptr @"??_R3?$numpunct@D@std@@8" to i64), i64 ptrtoint (ptr @__ImageBase to i64)) to i32), i32 trunc (i64 sub nuw nsw (i64 ptrtoint (ptr @"??_R4?$numpunct@D@std@@6B@" to i64), i64 ptrtoint (ptr @__ImageBase to i64)) to i32) }, comdat
@"??_R0?AV?$numpunct@D@std@@@8" = linkonce_odr global %rtti.TypeDescriptor22 { ptr @"??_7type_info@@6B@", ptr null, [23 x i8] c".?AV?$numpunct@D@std@@\00" }, comdat
@"??_R3?$numpunct@D@std@@8" = linkonce_odr constant %rtti.ClassHierarchyDescriptor { i32 0, i32 1, i32 4, i32 trunc (i64 sub nuw nsw (i64 ptrtoint (ptr @"??_R2?$numpunct@D@std@@8" to i64), i64 ptrtoint (ptr @__ImageBase to i64)) to i32) }, comdat
@"??_R2?$numpunct@D@std@@8" = linkonce_odr constant [5 x i32] [i32 trunc (i64 sub nuw nsw (i64 ptrtoint (ptr @"??_R1A@?0A@EA@?$numpunct@D@std@@8" to i64), i64 ptrtoint (ptr @__ImageBase to i64)) to i32), i32 trunc (i64 sub nuw nsw (i64 ptrtoint (ptr @"??_R1A@?0A@EA@facet@locale@std@@8" to i64), i64 ptrtoint (ptr @__ImageBase to i64)) to i32), i32 trunc (i64 sub nuw nsw (i64 ptrtoint (ptr @"??_R1A@?0A@EA@_Facet_base@std@@8" to i64), i64 ptrtoint (ptr @__ImageBase to i64)) to i32), i32 trunc (i64 sub nuw nsw (i64 ptrtoint (ptr @"??_R17?0A@EA@_Crt_new_delete@std@@8" to i64), i64 ptrtoint (ptr @__ImageBase to i64)) to i32), i32 0], comdat
@"??_R1A@?0A@EA@?$numpunct@D@std@@8" = linkonce_odr constant %rtti.BaseClassDescriptor { i32 trunc (i64 sub nuw nsw (i64 ptrtoint (ptr @"??_R0?AV?$numpunct@D@std@@@8" to i64), i64 ptrtoint (ptr @__ImageBase to i64)) to i32), i32 3, i32 0, i32 -1, i32 0, i32 64, i32 trunc (i64 sub nuw nsw (i64 ptrtoint (ptr @"??_R3?$numpunct@D@std@@8" to i64), i64 ptrtoint (ptr @__ImageBase to i64)) to i32) }, comdat
@"??_C@_05LAPONLG@false?$AA@" = linkonce_odr dso_local unnamed_addr constant [6 x i8] c"false\00", comdat, align 1
@"??_C@_04LOAJBDKD@true?$AA@" = linkonce_odr dso_local unnamed_addr constant [5 x i8] c"true\00", comdat, align 1
@"?_Src@?1???$_Parse_fp_with_locale@$0A@@?$num_get@DV?$istreambuf_iterator@DU?$char_traits@D@std@@@std@@@std@@CA?AU_Num_get_parse_result@2@QEADHAEAV?$istreambuf_iterator@DU?$char_traits@D@std@@@2@1AEBVlocale@2@@Z@4QBDB" = linkonce_odr dso_local constant [29 x i8] c"0123456789ABCDEFabcdef-+XxPp\00", comdat, align 16
@"??_C@_0BA@FOIKENOD@vector?5too?5long?$AA@" = linkonce_odr dso_local unnamed_addr constant [16 x i8] c"vector too long\00", comdat, align 1
@"?_Psave@?$_Facetptr@V?$num_put@DV?$ostreambuf_iterator@DU?$char_traits@D@std@@@std@@@std@@@std@@2PEBVfacet@locale@2@EB" = linkonce_odr dso_local local_unnamed_addr global ptr null, comdat, align 8
@15 = private unnamed_addr constant { [12 x ptr] } { [12 x ptr] [ptr @"??_R4?$num_put@DV?$ostreambuf_iterator@DU?$char_traits@D@std@@@std@@@std@@6B@", ptr @"??_E?$num_put@DV?$ostreambuf_iterator@DU?$char_traits@D@std@@@std@@@std@@MEAAPEAXI@Z", ptr @"?_Incref@facet@locale@std@@UEAAXXZ", ptr @"?_Decref@facet@locale@std@@UEAAPEAV_Facet_base@3@XZ", ptr @"?do_put@?$num_put@DV?$ostreambuf_iterator@DU?$char_traits@D@std@@@std@@@std@@MEBA?AV?$ostreambuf_iterator@DU?$char_traits@D@std@@@2@V32@AEAVios_base@2@DPEBX@Z", ptr @"?do_put@?$num_put@DV?$ostreambuf_iterator@DU?$char_traits@D@std@@@std@@@std@@MEBA?AV?$ostreambuf_iterator@DU?$char_traits@D@std@@@2@V32@AEAVios_base@2@DO@Z", ptr @"?do_put@?$num_put@DV?$ostreambuf_iterator@DU?$char_traits@D@std@@@std@@@std@@MEBA?AV?$ostreambuf_iterator@DU?$char_traits@D@std@@@2@V32@AEAVios_base@2@DN@Z", ptr @"?do_put@?$num_put@DV?$ostreambuf_iterator@DU?$char_traits@D@std@@@std@@@std@@MEBA?AV?$ostreambuf_iterator@DU?$char_traits@D@std@@@2@V32@AEAVios_base@2@D_K@Z", ptr @"?do_put@?$num_put@DV?$ostreambuf_iterator@DU?$char_traits@D@std@@@std@@@std@@MEBA?AV?$ostreambuf_iterator@DU?$char_traits@D@std@@@2@V32@AEAVios_base@2@D_J@Z", ptr @"?do_put@?$num_put@DV?$ostreambuf_iterator@DU?$char_traits@D@std@@@std@@@std@@MEBA?AV?$ostreambuf_iterator@DU?$char_traits@D@std@@@2@V32@AEAVios_base@2@DK@Z", ptr @"?do_put@?$num_put@DV?$ostreambuf_iterator@DU?$char_traits@D@std@@@std@@@std@@MEBA?AV?$ostreambuf_iterator@DU?$char_traits@D@std@@@2@V32@AEAVios_base@2@DJ@Z", ptr @"?do_put@?$num_put@DV?$ostreambuf_iterator@DU?$char_traits@D@std@@@std@@@std@@MEBA?AV?$ostreambuf_iterator@DU?$char_traits@D@std@@@2@V32@AEAVios_base@2@D_N@Z"] }, comdat($"??_7?$num_put@DV?$ostreambuf_iterator@DU?$char_traits@D@std@@@std@@@std@@6B@")
@"??_R4?$num_put@DV?$ostreambuf_iterator@DU?$char_traits@D@std@@@std@@@std@@6B@" = linkonce_odr constant %rtti.CompleteObjectLocator { i32 1, i32 0, i32 0, i32 trunc (i64 sub nuw nsw (i64 ptrtoint (ptr @"??_R0?AV?$num_put@DV?$ostreambuf_iterator@DU?$char_traits@D@std@@@std@@@std@@@8" to i64), i64 ptrtoint (ptr @__ImageBase to i64)) to i32), i32 trunc (i64 sub nuw nsw (i64 ptrtoint (ptr @"??_R3?$num_put@DV?$ostreambuf_iterator@DU?$char_traits@D@std@@@std@@@std@@8" to i64), i64 ptrtoint (ptr @__ImageBase to i64)) to i32), i32 trunc (i64 sub nuw nsw (i64 ptrtoint (ptr @"??_R4?$num_put@DV?$ostreambuf_iterator@DU?$char_traits@D@std@@@std@@@std@@6B@" to i64), i64 ptrtoint (ptr @__ImageBase to i64)) to i32) }, comdat
@"??_R0?AV?$num_put@DV?$ostreambuf_iterator@DU?$char_traits@D@std@@@std@@@std@@@8" = linkonce_odr global %rtti.TypeDescriptor73 { ptr @"??_7type_info@@6B@", ptr null, [74 x i8] c".?AV?$num_put@DV?$ostreambuf_iterator@DU?$char_traits@D@std@@@std@@@std@@\00" }, comdat
@"??_R3?$num_put@DV?$ostreambuf_iterator@DU?$char_traits@D@std@@@std@@@std@@8" = linkonce_odr constant %rtti.ClassHierarchyDescriptor { i32 0, i32 1, i32 4, i32 trunc (i64 sub nuw nsw (i64 ptrtoint (ptr @"??_R2?$num_put@DV?$ostreambuf_iterator@DU?$char_traits@D@std@@@std@@@std@@8" to i64), i64 ptrtoint (ptr @__ImageBase to i64)) to i32) }, comdat
@"??_R2?$num_put@DV?$ostreambuf_iterator@DU?$char_traits@D@std@@@std@@@std@@8" = linkonce_odr constant [5 x i32] [i32 trunc (i64 sub nuw nsw (i64 ptrtoint (ptr @"??_R1A@?0A@EA@?$num_put@DV?$ostreambuf_iterator@DU?$char_traits@D@std@@@std@@@std@@8" to i64), i64 ptrtoint (ptr @__ImageBase to i64)) to i32), i32 trunc (i64 sub nuw nsw (i64 ptrtoint (ptr @"??_R1A@?0A@EA@facet@locale@std@@8" to i64), i64 ptrtoint (ptr @__ImageBase to i64)) to i32), i32 trunc (i64 sub nuw nsw (i64 ptrtoint (ptr @"??_R1A@?0A@EA@_Facet_base@std@@8" to i64), i64 ptrtoint (ptr @__ImageBase to i64)) to i32), i32 trunc (i64 sub nuw nsw (i64 ptrtoint (ptr @"??_R17?0A@EA@_Crt_new_delete@std@@8" to i64), i64 ptrtoint (ptr @__ImageBase to i64)) to i32), i32 0], comdat
@"??_R1A@?0A@EA@?$num_put@DV?$ostreambuf_iterator@DU?$char_traits@D@std@@@std@@@std@@8" = linkonce_odr constant %rtti.BaseClassDescriptor { i32 trunc (i64 sub nuw nsw (i64 ptrtoint (ptr @"??_R0?AV?$num_put@DV?$ostreambuf_iterator@DU?$char_traits@D@std@@@std@@@std@@@8" to i64), i64 ptrtoint (ptr @__ImageBase to i64)) to i32), i32 3, i32 0, i32 -1, i32 0, i32 64, i32 trunc (i64 sub nuw nsw (i64 ptrtoint (ptr @"??_R3?$num_put@DV?$ostreambuf_iterator@DU?$char_traits@D@std@@@std@@@std@@8" to i64), i64 ptrtoint (ptr @__ImageBase to i64)) to i32) }, comdat
@"??_C@_02BBAHNLBA@?$CFp?$AA@" = linkonce_odr dso_local unnamed_addr constant [3 x i8] c"%p\00", comdat, align 1
@"?_OptionsStorage@?1??__local_stdio_printf_options@@9@4_KA" = linkonce_odr dso_local global i64 0, comdat, align 8
@"??_C@_0BI@CFPLBAOH@invalid?5string?5position?$AA@" = linkonce_odr dso_local unnamed_addr constant [24 x i8] c"invalid string position\00", comdat, align 1
@"??_C@_02MDKMJEGG@eE?$AA@" = linkonce_odr dso_local unnamed_addr constant [3 x i8] c"eE\00", comdat, align 1
@"??_C@_02OOPEBDOJ@pP?$AA@" = linkonce_odr dso_local unnamed_addr constant [3 x i8] c"pP\00", comdat, align 1
@llvm.global_ctors = appending global [3 x { i32, ptr, ptr }] [{ i32, ptr, ptr } { i32 65535, ptr @"??__E?id@?$num_get@DV?$istreambuf_iterator@DU?$char_traits@D@std@@@std@@@std@@2V0locale@2@A@@YAXXZ", ptr @"?id@?$num_get@DV?$istreambuf_iterator@DU?$char_traits@D@std@@@std@@@std@@2V0locale@2@A" }, { i32, ptr, ptr } { i32 65535, ptr @"??__E?id@?$numpunct@D@std@@2V0locale@2@A@@YAXXZ", ptr @"?id@?$numpunct@D@std@@2V0locale@2@A" }, { i32, ptr, ptr } { i32 65535, ptr @"??__E?id@?$num_put@DV?$ostreambuf_iterator@DU?$char_traits@D@std@@@std@@@std@@2V0locale@2@A@@YAXXZ", ptr @"?id@?$num_put@DV?$ostreambuf_iterator@DU?$char_traits@D@std@@@std@@@std@@2V0locale@2@A" }]
@llvm.used = appending global [3 x ptr] [ptr @"?id@?$num_get@DV?$istreambuf_iterator@DU?$char_traits@D@std@@@std@@@std@@2V0locale@2@A", ptr @"?id@?$num_put@DV?$ostreambuf_iterator@DU?$char_traits@D@std@@@std@@@std@@2V0locale@2@A", ptr @"?id@?$numpunct@D@std@@2V0locale@2@A"], section "llvm.metadata"

@"??_7bad_array_new_length@std@@6B@" = unnamed_addr alias ptr, getelementptr inbounds ({ [3 x ptr] }, ptr @0, i32 0, i32 0, i32 1)
@"??_7bad_alloc@std@@6B@" = unnamed_addr alias ptr, getelementptr inbounds ({ [3 x ptr] }, ptr @1, i32 0, i32 0, i32 1)
@"??_7exception@std@@6B@" = unnamed_addr alias ptr, getelementptr inbounds ({ [3 x ptr] }, ptr @2, i32 0, i32 0, i32 1)
@"??_Eexception@std@@UEAAPEAXI@Z" = weak dso_local unnamed_addr alias ptr (ptr, i32), ptr @"??_Gexception@std@@UEAAPEAXI@Z"
@"??_Ebad_alloc@std@@UEAAPEAXI@Z" = weak dso_local unnamed_addr alias ptr (ptr, i32), ptr @"??_Gbad_alloc@std@@UEAAPEAXI@Z"
@"??_Ebad_array_new_length@std@@UEAAPEAXI@Z" = weak dso_local unnamed_addr alias ptr (ptr, i32), ptr @"??_Gbad_array_new_length@std@@UEAAPEAXI@Z"
@"??_7_Iostream_error_category2@std@@6B@" = unnamed_addr alias ptr, getelementptr inbounds ({ [7 x ptr] }, ptr @3, i32 0, i32 0, i32 1)
@"??_E_Iostream_error_category2@std@@UEAAPEAXI@Z" = weak dso_local unnamed_addr alias ptr (ptr, i32), ptr @"??_G_Iostream_error_category2@std@@UEAAPEAXI@Z"
@"??_7failure@ios_base@std@@6B@" = unnamed_addr alias ptr, getelementptr inbounds ({ [3 x ptr] }, ptr @4, i32 0, i32 0, i32 1)
@"??_7system_error@std@@6B@" = unnamed_addr alias ptr, getelementptr inbounds ({ [3 x ptr] }, ptr @5, i32 0, i32 0, i32 1)
@"??_7_System_error@std@@6B@" = unnamed_addr alias ptr, getelementptr inbounds ({ [3 x ptr] }, ptr @6, i32 0, i32 0, i32 1)
@"??_7runtime_error@std@@6B@" = unnamed_addr alias ptr, getelementptr inbounds ({ [3 x ptr] }, ptr @7, i32 0, i32 0, i32 1)
@"??_Eruntime_error@std@@UEAAPEAXI@Z" = weak dso_local unnamed_addr alias ptr (ptr, i32), ptr @"??_Gruntime_error@std@@UEAAPEAXI@Z"
@"??_E_System_error@std@@UEAAPEAXI@Z" = weak dso_local unnamed_addr alias ptr (ptr, i32), ptr @"??_G_System_error@std@@UEAAPEAXI@Z"
@"??_Esystem_error@std@@UEAAPEAXI@Z" = weak dso_local unnamed_addr alias ptr (ptr, i32), ptr @"??_Gsystem_error@std@@UEAAPEAXI@Z"
@"??_Efailure@ios_base@std@@UEAAPEAXI@Z" = weak dso_local unnamed_addr alias ptr (ptr, i32), ptr @"??_Gfailure@ios_base@std@@UEAAPEAXI@Z"
@"??_7?$ctype@D@std@@6B@" = unnamed_addr alias ptr, getelementptr inbounds ({ [12 x ptr] }, ptr @8, i32 0, i32 0, i32 1)
@"??_7ctype_base@std@@6B@" = unnamed_addr alias ptr, getelementptr inbounds ({ [4 x ptr] }, ptr @9, i32 0, i32 0, i32 1)
@"??_7facet@locale@std@@6B@" = unnamed_addr alias ptr, getelementptr inbounds ({ [4 x ptr] }, ptr @10, i32 0, i32 0, i32 1)
@"??_7_Facet_base@std@@6B@" = unnamed_addr alias ptr, getelementptr inbounds ({ [4 x ptr] }, ptr @11, i32 0, i32 0, i32 1)
@"??_E_Facet_base@std@@UEAAPEAXI@Z" = weak dso_local unnamed_addr alias ptr (ptr, i32), ptr @"??_G_Facet_base@std@@UEAAPEAXI@Z"
@"??_Efacet@locale@std@@MEAAPEAXI@Z" = weak dso_local unnamed_addr alias ptr (ptr, i32), ptr @"??_Gfacet@locale@std@@MEAAPEAXI@Z"
@"??_Ectype_base@std@@UEAAPEAXI@Z" = weak dso_local unnamed_addr alias ptr (ptr, i32), ptr @"??_Gctype_base@std@@UEAAPEAXI@Z"
@"??_E?$ctype@D@std@@MEAAPEAXI@Z" = weak dso_local unnamed_addr alias ptr (ptr, i32), ptr @"??_G?$ctype@D@std@@MEAAPEAXI@Z"
@"??_7bad_cast@std@@6B@" = unnamed_addr alias ptr, getelementptr inbounds ({ [3 x ptr] }, ptr @12, i32 0, i32 0, i32 1)
@"??_Ebad_cast@std@@UEAAPEAXI@Z" = weak dso_local unnamed_addr alias ptr (ptr, i32), ptr @"??_Gbad_cast@std@@UEAAPEAXI@Z"
@"??_7?$num_get@DV?$istreambuf_iterator@DU?$char_traits@D@std@@@std@@@std@@6B@" = unnamed_addr alias ptr, getelementptr inbounds ({ [15 x ptr] }, ptr @13, i32 0, i32 0, i32 1)
@"??_E?$num_get@DV?$istreambuf_iterator@DU?$char_traits@D@std@@@std@@@std@@MEAAPEAXI@Z" = weak dso_local unnamed_addr alias ptr (ptr, i32), ptr @"??_G?$num_get@DV?$istreambuf_iterator@DU?$char_traits@D@std@@@std@@@std@@MEAAPEAXI@Z"
@"??_7?$numpunct@D@std@@6B@" = unnamed_addr alias ptr, getelementptr inbounds ({ [9 x ptr] }, ptr @14, i32 0, i32 0, i32 1)
@"??_E?$numpunct@D@std@@MEAAPEAXI@Z" = weak dso_local unnamed_addr alias ptr (ptr, i32), ptr @"??_G?$numpunct@D@std@@MEAAPEAXI@Z"
@"??_7?$num_put@DV?$ostreambuf_iterator@DU?$char_traits@D@std@@@std@@@std@@6B@" = unnamed_addr alias ptr, getelementptr inbounds ({ [12 x ptr] }, ptr @15, i32 0, i32 0, i32 1)
@"??_E?$num_put@DV?$ostreambuf_iterator@DU?$char_traits@D@std@@@std@@@std@@MEAAPEAXI@Z" = weak dso_local unnamed_addr alias ptr (ptr, i32), ptr @"??_G?$num_put@DV?$ostreambuf_iterator@DU?$char_traits@D@std@@@std@@@std@@MEAAPEAXI@Z"

; Function Attrs: mustprogress norecurse uwtable
define dso_local noundef i32 @main() local_unnamed_addr #0 personality ptr @__CxxFrameHandler3 {
entry:
  %_Result.i112 = alloca i32, align 4
  %_Result.i = alloca i32, align 4
  %students = alloca %"class.std::vector", align 8
  %s = alloca %struct.Student, align 8
  %call = tail call noundef nonnull align 8 dereferenceable(8) ptr @"??$?6U?$char_traits@D@std@@@std@@YAAEAV?$basic_ostream@DU?$char_traits@D@std@@@0@AEAV10@PEBD@Z"(ptr noundef nonnull align 8 dereferenceable(8) @"?cout@std@@3V?$basic_ostream@DU?$char_traits@D@std@@@1@A", ptr noundef nonnull @"??_C@_0BL@BHNAENJN@Enter?5number?5of?5students?3?5?$AA@")
  call void @llvm.lifetime.start.p0(ptr nonnull %_Result.i) #15
  %call.i = call noundef nonnull align 8 dereferenceable(16) ptr @"??$_Common_extract_with_num_get@J@?$basic_istream@DU?$char_traits@D@std@@@std@@AEAAAEAV01@AEAJ@Z"(ptr noundef nonnull align 8 dereferenceable(16) @"?cin@std@@3V?$basic_istream@DU?$char_traits@D@std@@@1@A", ptr noundef nonnull align 4 dereferenceable(4) %_Result.i)
  %0 = load i32, ptr %_Result.i, align 4
  call void @llvm.lifetime.end.p0(ptr nonnull %_Result.i) #15
  call void @llvm.lifetime.start.p0(ptr nonnull %students) #15
  %conv = sext i32 %0 to i64
  call void @llvm.memset.p0.i64(ptr noundef nonnull align 8 dereferenceable(24) %students, i8 0, i64 24, i1 false)
  %cmp.not.i.i = icmp eq i32 %0, 0
  br i1 %cmp.not.i.i, label %"??0?$vector@UStudent@@V?$allocator@UStudent@@@std@@@std@@QEAA@_KAEBV?$allocator@UStudent@@@1@@Z.exit", label %if.then.i.i

if.then.i.i:                                      ; preds = %entry
  %cmp.i.i.i = icmp slt i32 %0, 0
  br i1 %cmp.i.i.i, label %if.then.i.i.i, label %if.end.i.i.i.i.i.i.i

if.then.i.i.i:                                    ; preds = %if.then.i.i
  call void @"?_Xlength@?$vector@UStudent@@V?$allocator@UStudent@@@std@@@std@@CAXXZ"() #30
  unreachable

if.end.i.i.i.i.i.i.i:                             ; preds = %if.then.i.i
  %mul.i.i.i.i.i.i.i = mul nuw nsw i64 %conv, 48
  %cmp1.i.i.i.i.i.i.i = icmp samesign ugt i32 %0, 85
  br i1 %cmp1.i.i.i.i.i.i.i, label %if.then2.i.i.i.i.i.i.i, label %if.end3.i.i.i.i.i.i.i

if.then2.i.i.i.i.i.i.i:                           ; preds = %if.end.i.i.i.i.i.i.i
  %add.i.i.i.i.i.i.i.i = add nuw nsw i64 %mul.i.i.i.i.i.i.i, 39
  %call.i.i.i.i.i.i.i.i.i = call noalias noundef nonnull ptr @"??2@YAPEAX_K@Z"(i64 noundef %add.i.i.i.i.i.i.i.i) #31
  %1 = ptrtoint ptr %call.i.i.i.i.i.i.i.i.i to i64
  %add4.i.i.i.i.i.i.i.i = add i64 %1, 39
  %and.i.i.i.i.i.i.i.i = and i64 %add4.i.i.i.i.i.i.i.i, -32
  %2 = inttoptr i64 %and.i.i.i.i.i.i.i.i to ptr
  %arrayidx.i.i.i.i.i.i.i.i = getelementptr inbounds i8, ptr %2, i64 -8
  store i64 %1, ptr %arrayidx.i.i.i.i.i.i.i.i, align 8
  br label %"?_Buy_nonzero@?$vector@UStudent@@V?$allocator@UStudent@@@std@@@std@@AEAAX_K@Z.exit.i.i"

if.end3.i.i.i.i.i.i.i:                            ; preds = %if.end.i.i.i.i.i.i.i
  %call.i.i.i.i.i.i.i.i = call noalias noundef nonnull ptr @"??2@YAPEAX_K@Z"(i64 noundef %mul.i.i.i.i.i.i.i) #31
  br label %"?_Buy_nonzero@?$vector@UStudent@@V?$allocator@UStudent@@@std@@@std@@AEAAX_K@Z.exit.i.i"

"?_Buy_nonzero@?$vector@UStudent@@V?$allocator@UStudent@@@std@@@std@@AEAAX_K@Z.exit.i.i": ; preds = %if.end3.i.i.i.i.i.i.i, %if.then2.i.i.i.i.i.i.i
  %retval.0.i.i.i.i.i.i.i = phi ptr [ %call.i.i.i.i.i.i.i.i, %if.end3.i.i.i.i.i.i.i ], [ %2, %if.then2.i.i.i.i.i.i.i ]
  %_Myend4.i.i.i.i = getelementptr inbounds nuw i8, ptr %students, i64 16
  store ptr %retval.0.i.i.i.i.i.i.i, ptr %students, align 8
  %add.ptr.i.i.i.i = getelementptr inbounds nuw %struct.Student, ptr %retval.0.i.i.i.i.i.i.i, i64 %conv
  store ptr %add.ptr.i.i.i.i, ptr %_Myend4.i.i.i.i, align 8
  %xtraiter = and i64 %conv, 7
  %3 = and i32 %0, 7
  %lcmp.mod.not = icmp eq i32 %3, 0
  br i1 %lcmp.mod.not, label %for.inc.i.i.i.prol.loopexit, label %for.inc.i.i.i.prol

for.inc.i.i.i.prol:                               ; preds = %"?_Buy_nonzero@?$vector@UStudent@@V?$allocator@UStudent@@@std@@@std@@AEAAX_K@Z.exit.i.i", %for.inc.i.i.i.prol
  %_Count.addr.09.i.i.i.prol = phi i64 [ %dec.i.i.i.prol, %for.inc.i.i.i.prol ], [ %conv, %"?_Buy_nonzero@?$vector@UStudent@@V?$allocator@UStudent@@@std@@@std@@AEAAX_K@Z.exit.i.i" ]
  %4 = phi ptr [ %incdec.ptr.i.i.i.i.prol, %for.inc.i.i.i.prol ], [ %retval.0.i.i.i.i.i.i.i, %"?_Buy_nonzero@?$vector@UStudent@@V?$allocator@UStudent@@@std@@@std@@AEAAX_K@Z.exit.i.i" ]
  %prol.iter = phi i64 [ %prol.iter.next, %for.inc.i.i.i.prol ], [ 0, %"?_Buy_nonzero@?$vector@UStudent@@V?$allocator@UStudent@@@std@@@std@@AEAAX_K@Z.exit.i.i" ]
  %_Myres.i.i.i.i.i.i.i.i.prol = getelementptr inbounds nuw i8, ptr %4, i64 32
  call void @llvm.memset.p0.i64(ptr noundef nonnull align 8 dereferenceable(48) %4, i8 0, i64 48, i1 false)
  store i64 15, ptr %_Myres.i.i.i.i.i.i.i.i.prol, align 8
  %incdec.ptr.i.i.i.i.prol = getelementptr inbounds nuw i8, ptr %4, i64 48
  %dec.i.i.i.prol = add i64 %_Count.addr.09.i.i.i.prol, -1
  %prol.iter.next = add i64 %prol.iter, 1
  %prol.iter.cmp.not = icmp eq i64 %prol.iter.next, %xtraiter
  br i1 %prol.iter.cmp.not, label %for.inc.i.i.i.prol.loopexit, label %for.inc.i.i.i.prol, !llvm.loop !17

for.inc.i.i.i.prol.loopexit:                      ; preds = %for.inc.i.i.i.prol, %"?_Buy_nonzero@?$vector@UStudent@@V?$allocator@UStudent@@@std@@@std@@AEAAX_K@Z.exit.i.i"
  %incdec.ptr.i.i.i.i.lcssa.unr = phi ptr [ poison, %"?_Buy_nonzero@?$vector@UStudent@@V?$allocator@UStudent@@@std@@@std@@AEAAX_K@Z.exit.i.i" ], [ %incdec.ptr.i.i.i.i.prol, %for.inc.i.i.i.prol ]
  %_Count.addr.09.i.i.i.unr = phi i64 [ %conv, %"?_Buy_nonzero@?$vector@UStudent@@V?$allocator@UStudent@@@std@@@std@@AEAAX_K@Z.exit.i.i" ], [ %dec.i.i.i.prol, %for.inc.i.i.i.prol ]
  %.unr = phi ptr [ %retval.0.i.i.i.i.i.i.i, %"?_Buy_nonzero@?$vector@UStudent@@V?$allocator@UStudent@@@std@@@std@@AEAAX_K@Z.exit.i.i" ], [ %incdec.ptr.i.i.i.i.prol, %for.inc.i.i.i.prol ]
  %5 = icmp ult i32 %0, 8
  br i1 %5, label %invoke.cont.i.i, label %for.inc.i.i.i

for.inc.i.i.i:                                    ; preds = %for.inc.i.i.i.prol.loopexit, %for.inc.i.i.i
  %_Count.addr.09.i.i.i = phi i64 [ %dec.i.i.i.7, %for.inc.i.i.i ], [ %_Count.addr.09.i.i.i.unr, %for.inc.i.i.i.prol.loopexit ]
  %6 = phi ptr [ %incdec.ptr.i.i.i.i.7, %for.inc.i.i.i ], [ %.unr, %for.inc.i.i.i.prol.loopexit ]
  %_Myres.i.i.i.i.i.i.i.i = getelementptr inbounds nuw i8, ptr %6, i64 32
  call void @llvm.memset.p0.i64(ptr noundef nonnull align 8 dereferenceable(48) %6, i8 0, i64 48, i1 false)
  store i64 15, ptr %_Myres.i.i.i.i.i.i.i.i, align 8
  %incdec.ptr.i.i.i.i = getelementptr inbounds nuw i8, ptr %6, i64 48
  %_Myres.i.i.i.i.i.i.i.i.1 = getelementptr inbounds nuw i8, ptr %6, i64 80
  call void @llvm.memset.p0.i64(ptr noundef nonnull align 8 dereferenceable(48) %incdec.ptr.i.i.i.i, i8 0, i64 48, i1 false)
  store i64 15, ptr %_Myres.i.i.i.i.i.i.i.i.1, align 8
  %incdec.ptr.i.i.i.i.1 = getelementptr inbounds nuw i8, ptr %6, i64 96
  %_Myres.i.i.i.i.i.i.i.i.2 = getelementptr inbounds nuw i8, ptr %6, i64 128
  call void @llvm.memset.p0.i64(ptr noundef nonnull align 8 dereferenceable(48) %incdec.ptr.i.i.i.i.1, i8 0, i64 48, i1 false)
  store i64 15, ptr %_Myres.i.i.i.i.i.i.i.i.2, align 8
  %incdec.ptr.i.i.i.i.2 = getelementptr inbounds nuw i8, ptr %6, i64 144
  %_Myres.i.i.i.i.i.i.i.i.3 = getelementptr inbounds nuw i8, ptr %6, i64 176
  call void @llvm.memset.p0.i64(ptr noundef nonnull align 8 dereferenceable(48) %incdec.ptr.i.i.i.i.2, i8 0, i64 48, i1 false)
  store i64 15, ptr %_Myres.i.i.i.i.i.i.i.i.3, align 8
  %incdec.ptr.i.i.i.i.3 = getelementptr inbounds nuw i8, ptr %6, i64 192
  %_Myres.i.i.i.i.i.i.i.i.4 = getelementptr inbounds nuw i8, ptr %6, i64 224
  call void @llvm.memset.p0.i64(ptr noundef nonnull align 8 dereferenceable(48) %incdec.ptr.i.i.i.i.3, i8 0, i64 48, i1 false)
  store i64 15, ptr %_Myres.i.i.i.i.i.i.i.i.4, align 8
  %incdec.ptr.i.i.i.i.4 = getelementptr inbounds nuw i8, ptr %6, i64 240
  %_Myres.i.i.i.i.i.i.i.i.5 = getelementptr inbounds nuw i8, ptr %6, i64 272
  call void @llvm.memset.p0.i64(ptr noundef nonnull align 8 dereferenceable(48) %incdec.ptr.i.i.i.i.4, i8 0, i64 48, i1 false)
  store i64 15, ptr %_Myres.i.i.i.i.i.i.i.i.5, align 8
  %incdec.ptr.i.i.i.i.5 = getelementptr inbounds nuw i8, ptr %6, i64 288
  %_Myres.i.i.i.i.i.i.i.i.6 = getelementptr inbounds nuw i8, ptr %6, i64 320
  call void @llvm.memset.p0.i64(ptr noundef nonnull align 8 dereferenceable(48) %incdec.ptr.i.i.i.i.5, i8 0, i64 48, i1 false)
  store i64 15, ptr %_Myres.i.i.i.i.i.i.i.i.6, align 8
  %incdec.ptr.i.i.i.i.6 = getelementptr inbounds nuw i8, ptr %6, i64 336
  %_Myres.i.i.i.i.i.i.i.i.7 = getelementptr inbounds nuw i8, ptr %6, i64 368
  call void @llvm.memset.p0.i64(ptr noundef nonnull align 8 dereferenceable(48) %incdec.ptr.i.i.i.i.6, i8 0, i64 48, i1 false)
  store i64 15, ptr %_Myres.i.i.i.i.i.i.i.i.7, align 8
  %incdec.ptr.i.i.i.i.7 = getelementptr inbounds nuw i8, ptr %6, i64 384
  %dec.i.i.i.7 = add i64 %_Count.addr.09.i.i.i, -8
  %cmp.not.i.i.i.7 = icmp eq i64 %dec.i.i.i.7, 0
  br i1 %cmp.not.i.i.i.7, label %invoke.cont.i.i, label %for.inc.i.i.i, !llvm.loop !19

invoke.cont.i.i:                                  ; preds = %for.inc.i.i.i, %for.inc.i.i.i.prol.loopexit
  %incdec.ptr.i.i.i.i.lcssa = phi ptr [ %incdec.ptr.i.i.i.i.lcssa.unr, %for.inc.i.i.i.prol.loopexit ], [ %incdec.ptr.i.i.i.i.7, %for.inc.i.i.i ]
  %_Mylast3.i.i.i.i = getelementptr inbounds nuw i8, ptr %students, i64 8
  store ptr %incdec.ptr.i.i.i.i.lcssa, ptr %_Mylast3.i.i.i.i, align 8
  br label %"??0?$vector@UStudent@@V?$allocator@UStudent@@@std@@@std@@QEAA@_KAEBV?$allocator@UStudent@@@1@@Z.exit"

"??0?$vector@UStudent@@V?$allocator@UStudent@@@std@@@std@@QEAA@_KAEBV?$allocator@UStudent@@@1@@Z.exit": ; preds = %entry, %invoke.cont.i.i
  %7 = phi ptr [ null, %entry ], [ %retval.0.i.i.i.i.i.i.i, %invoke.cont.i.i ]
  %8 = phi ptr [ null, %entry ], [ %incdec.ptr.i.i.i.i.lcssa, %invoke.cont.i.i ]
  br label %for.cond

for.cond:                                         ; preds = %invoke.cont25, %"??0?$vector@UStudent@@V?$allocator@UStudent@@@std@@@std@@QEAA@_KAEBV?$allocator@UStudent@@@1@@Z.exit"
  %9 = phi ptr [ %7, %"??0?$vector@UStudent@@V?$allocator@UStudent@@@std@@@std@@QEAA@_KAEBV?$allocator@UStudent@@@1@@Z.exit" ], [ %12, %invoke.cont25 ]
  %i.0 = phi i32 [ 0, %"??0?$vector@UStudent@@V?$allocator@UStudent@@@std@@@std@@QEAA@_KAEBV?$allocator@UStudent@@@1@@Z.exit" ], [ %add, %invoke.cont25 ]
  %sum.0 = phi float [ 0.000000e+00, %"??0?$vector@UStudent@@V?$allocator@UStudent@@@std@@@std@@QEAA@_KAEBV?$allocator@UStudent@@@1@@Z.exit" ], [ %add30, %invoke.cont25 ]
  %cmp = icmp slt i32 %i.0, %0
  br i1 %cmp, label %for.body, label %for.cond.cleanup

for.cond.cleanup:                                 ; preds = %for.cond
  %_Mylast.i = getelementptr inbounds nuw i8, ptr %students, i64 8
  %coerce.val.pi = ptrtoint ptr %9 to i64
  %coerce.val.pi36 = ptrtoint ptr %8 to i64
  %sub.ptr.sub.i = sub i64 %coerce.val.pi36, %coerce.val.pi
  %sub.ptr.div.i = sdiv exact i64 %sub.ptr.sub.i, 48
  invoke fastcc void @"??$_Sort_unchecked@PEAUStudent@@V<lambda_0>@?0??main@@9@@std@@YAXPEAUStudent@@0_JV<lambda_0>@?0??main@@9@@Z"(ptr noundef %9, ptr noundef %8, i64 noundef %sub.ptr.div.i)
          to label %invoke.cont38 unwind label %ehcleanup98

for.body:                                         ; preds = %for.cond
  %call4 = invoke noundef nonnull align 8 dereferenceable(8) ptr @"??$?6U?$char_traits@D@std@@@std@@YAAEAV?$basic_ostream@DU?$char_traits@D@std@@@0@AEAV10@PEBD@Z"(ptr noundef nonnull align 8 dereferenceable(8) @"?cout@std@@3V?$basic_ostream@DU?$char_traits@D@std@@@1@A", ptr noundef nonnull @"??_C@_09JPAMLHK@?6Student?5?$AA@")
          to label %invoke.cont unwind label %ehcleanup98

invoke.cont:                                      ; preds = %for.body
  %add = add nuw nsw i32 %i.0, 1
  %call6 = invoke noundef nonnull align 8 dereferenceable(8) ptr @"??6?$basic_ostream@DU?$char_traits@D@std@@@std@@QEAAAEAV01@H@Z"(ptr noundef nonnull align 8 dereferenceable(8) %call4, i32 noundef %add)
          to label %invoke.cont5 unwind label %ehcleanup98

invoke.cont5:                                     ; preds = %invoke.cont
  %call.i110111 = invoke noundef nonnull align 8 dereferenceable(8) ptr @"??$endl@DU?$char_traits@D@std@@@std@@YAAEAV?$basic_ostream@DU?$char_traits@D@std@@@0@AEAV10@@Z"(ptr noundef nonnull align 8 dereferenceable(8) %call6)
          to label %invoke.cont7 unwind label %ehcleanup98

invoke.cont7:                                     ; preds = %invoke.cont5
  %call10 = invoke noundef nonnull align 8 dereferenceable(8) ptr @"??$?6U?$char_traits@D@std@@@std@@YAAEAV?$basic_ostream@DU?$char_traits@D@std@@@0@AEAV10@PEBD@Z"(ptr noundef nonnull align 8 dereferenceable(8) @"?cout@std@@3V?$basic_ostream@DU?$char_traits@D@std@@@1@A", ptr noundef nonnull @"??_C@_04MEDALJFE@ID?3?5?$AA@")
          to label %invoke.cont9 unwind label %ehcleanup98

invoke.cont9:                                     ; preds = %invoke.cont7
  %conv11 = zext nneg i32 %i.0 to i64
  %arrayidx.i = getelementptr inbounds nuw %struct.Student, ptr %9, i64 %conv11
  call void @llvm.lifetime.start.p0(ptr nonnull %_Result.i112) #15
  %10 = load i32, ptr %arrayidx.i, align 4
  store i32 %10, ptr %_Result.i112, align 4
  %call.i113114 = invoke noundef nonnull align 8 dereferenceable(16) ptr @"??$_Common_extract_with_num_get@J@?$basic_istream@DU?$char_traits@D@std@@@std@@AEAAAEAV01@AEAJ@Z"(ptr noundef nonnull align 8 dereferenceable(16) @"?cin@std@@3V?$basic_istream@DU?$char_traits@D@std@@@1@A", ptr noundef nonnull align 4 dereferenceable(4) %_Result.i112)
          to label %invoke.cont13 unwind label %ehcleanup98

invoke.cont13:                                    ; preds = %invoke.cont9
  %11 = load i32, ptr %_Result.i112, align 4
  store i32 %11, ptr %arrayidx.i, align 4
  call void @llvm.lifetime.end.p0(ptr nonnull %_Result.i112) #15
  %call16 = invoke noundef nonnull align 8 dereferenceable(8) ptr @"??$?6U?$char_traits@D@std@@@std@@YAAEAV?$basic_ostream@DU?$char_traits@D@std@@@0@AEAV10@PEBD@Z"(ptr noundef nonnull align 8 dereferenceable(8) @"?cout@std@@3V?$basic_ostream@DU?$char_traits@D@std@@@1@A", ptr noundef nonnull @"??_C@_06GECNACHD@Name?3?5?$AA@")
          to label %invoke.cont15 unwind label %ehcleanup98

invoke.cont15:                                    ; preds = %invoke.cont13
  %12 = load ptr, ptr %students, align 8
  %arrayidx.i115 = getelementptr inbounds nuw %struct.Student, ptr %12, i64 %conv11
  %name = getelementptr inbounds nuw i8, ptr %arrayidx.i115, i64 8
  %call20 = invoke noundef nonnull align 8 dereferenceable(16) ptr @"??$?5DU?$char_traits@D@std@@V?$allocator@D@1@@std@@YAAEAV?$basic_istream@DU?$char_traits@D@std@@@0@AEAV10@AEAV?$basic_string@DU?$char_traits@D@std@@V?$allocator@D@2@@0@@Z"(ptr noundef nonnull align 8 dereferenceable(16) @"?cin@std@@3V?$basic_istream@DU?$char_traits@D@std@@@1@A", ptr noundef nonnull align 8 dereferenceable(32) %name)
          to label %invoke.cont19 unwind label %ehcleanup98

invoke.cont19:                                    ; preds = %invoke.cont15
  %call22 = invoke noundef nonnull align 8 dereferenceable(8) ptr @"??$?6U?$char_traits@D@std@@@std@@YAAEAV?$basic_ostream@DU?$char_traits@D@std@@@0@AEAV10@PEBD@Z"(ptr noundef nonnull align 8 dereferenceable(8) @"?cout@std@@3V?$basic_ostream@DU?$char_traits@D@std@@@1@A", ptr noundef nonnull @"??_C@_07GIHOBBPL@Marks?3?5?$AA@")
          to label %invoke.cont21 unwind label %ehcleanup98

invoke.cont21:                                    ; preds = %invoke.cont19
  %marks = getelementptr inbounds nuw i8, ptr %arrayidx.i115, i64 40
  %call.i117118 = invoke noundef nonnull align 8 dereferenceable(16) ptr @"??$_Common_extract_with_num_get@M@?$basic_istream@DU?$char_traits@D@std@@@std@@AEAAAEAV01@AEAM@Z"(ptr noundef nonnull align 8 dereferenceable(16) @"?cin@std@@3V?$basic_istream@DU?$char_traits@D@std@@@1@A", ptr noundef nonnull align 4 dereferenceable(4) %marks)
          to label %invoke.cont25 unwind label %ehcleanup98

invoke.cont25:                                    ; preds = %invoke.cont21
  %13 = load float, ptr %marks, align 8
  %add30 = fadd float %sum.0, %13
  br label %for.cond, !llvm.loop !21

invoke.cont38:                                    ; preds = %for.cond.cleanup
  %call40 = invoke noundef nonnull align 8 dereferenceable(8) ptr @"??$?6U?$char_traits@D@std@@@std@@YAAEAV?$basic_ostream@DU?$char_traits@D@std@@@0@AEAV10@PEBD@Z"(ptr noundef nonnull align 8 dereferenceable(8) @"?cout@std@@3V?$basic_ostream@DU?$char_traits@D@std@@@1@A", ptr noundef nonnull @"??_C@_0BC@MKJAKPKP@?6Average?5Marks?5?$DN?5?$AA@")
          to label %invoke.cont39 unwind label %ehcleanup98

invoke.cont39:                                    ; preds = %invoke.cont38
  %conv41 = sitofp i32 %0 to float
  %div = fdiv float %sum.0, %conv41
  %call43 = invoke noundef nonnull align 8 dereferenceable(8) ptr @"??6?$basic_ostream@DU?$char_traits@D@std@@@std@@QEAAAEAV01@M@Z"(ptr noundef nonnull align 8 dereferenceable(8) %call40, float noundef %div)
          to label %invoke.cont42 unwind label %ehcleanup98

invoke.cont42:                                    ; preds = %invoke.cont39
  %call.i120121 = invoke noundef nonnull align 8 dereferenceable(8) ptr @"??$endl@DU?$char_traits@D@std@@@std@@YAAEAV?$basic_ostream@DU?$char_traits@D@std@@@0@AEAV10@@Z"(ptr noundef nonnull align 8 dereferenceable(8) %call43)
          to label %invoke.cont44 unwind label %ehcleanup98

invoke.cont44:                                    ; preds = %invoke.cont42
  %call47 = invoke noundef nonnull align 8 dereferenceable(8) ptr @"??$?6U?$char_traits@D@std@@@std@@YAAEAV?$basic_ostream@DU?$char_traits@D@std@@@0@AEAV10@PEBD@Z"(ptr noundef nonnull align 8 dereferenceable(8) @"?cout@std@@3V?$basic_ostream@DU?$char_traits@D@std@@@1@A", ptr noundef nonnull @"??_C@_09IJJPGACB@?6Topper?3?6?$AA@")
          to label %invoke.cont46 unwind label %ehcleanup98

invoke.cont46:                                    ; preds = %invoke.cont44
  %14 = load ptr, ptr %students, align 8
  %15 = load i32, ptr %14, align 8
  %call51 = invoke noundef nonnull align 8 dereferenceable(8) ptr @"??6?$basic_ostream@DU?$char_traits@D@std@@@std@@QEAAAEAV01@H@Z"(ptr noundef nonnull align 8 dereferenceable(8) @"?cout@std@@3V?$basic_ostream@DU?$char_traits@D@std@@@1@A", i32 noundef %15)
          to label %invoke.cont50 unwind label %ehcleanup98

invoke.cont50:                                    ; preds = %invoke.cont46
  %call53 = invoke noundef nonnull align 8 dereferenceable(8) ptr @"??$?6U?$char_traits@D@std@@@std@@YAAEAV?$basic_ostream@DU?$char_traits@D@std@@@0@AEAV10@PEBD@Z"(ptr noundef nonnull align 8 dereferenceable(8) %call51, ptr noundef nonnull @"??_C@_01CLKCMJKC@?5?$AA@")
          to label %invoke.cont52 unwind label %ehcleanup98

invoke.cont52:                                    ; preds = %invoke.cont50
  %name55 = getelementptr inbounds nuw i8, ptr %14, i64 8
  %_Mysize.i.i = getelementptr inbounds nuw i8, ptr %14, i64 24
  %16 = load i64, ptr %_Mysize.i.i, align 8
  %_Myres.i.i.i.i = getelementptr inbounds nuw i8, ptr %14, i64 32
  %17 = load i64, ptr %_Myres.i.i.i.i, align 8
  %cmp.i.i.i.i = icmp ugt i64 %17, 15
  %18 = load ptr, ptr %name55, align 8
  %spec.select.i.i.i = select i1 %cmp.i.i.i.i, ptr %18, ptr %name55
  %call2.i125 = invoke noundef nonnull align 8 dereferenceable(8) ptr @"??$_Insert_string@DU?$char_traits@D@std@@_K@std@@YAAEAV?$basic_ostream@DU?$char_traits@D@std@@@0@AEAV10@QEBD_K@Z"(ptr noundef nonnull align 8 dereferenceable(8) %call53, ptr noundef %spec.select.i.i.i, i64 noundef %16)
          to label %invoke.cont56 unwind label %ehcleanup98

invoke.cont56:                                    ; preds = %invoke.cont52
  %call59 = invoke noundef nonnull align 8 dereferenceable(8) ptr @"??$?6U?$char_traits@D@std@@@std@@YAAEAV?$basic_ostream@DU?$char_traits@D@std@@@0@AEAV10@PEBD@Z"(ptr noundef nonnull align 8 dereferenceable(8) %call2.i125, ptr noundef nonnull @"??_C@_01CLKCMJKC@?5?$AA@")
          to label %invoke.cont58 unwind label %ehcleanup98

invoke.cont58:                                    ; preds = %invoke.cont56
  %marks61 = getelementptr inbounds nuw i8, ptr %14, i64 40
  %19 = load float, ptr %marks61, align 8
  %call63 = invoke noundef nonnull align 8 dereferenceable(8) ptr @"??6?$basic_ostream@DU?$char_traits@D@std@@@std@@QEAAAEAV01@M@Z"(ptr noundef nonnull align 8 dereferenceable(8) %call59, float noundef %19)
          to label %invoke.cont62 unwind label %ehcleanup98

invoke.cont62:                                    ; preds = %invoke.cont58
  %call.i127128 = invoke noundef nonnull align 8 dereferenceable(8) ptr @"??$endl@DU?$char_traits@D@std@@@std@@YAAEAV?$basic_ostream@DU?$char_traits@D@std@@@0@AEAV10@@Z"(ptr noundef nonnull align 8 dereferenceable(8) %call63)
          to label %invoke.cont64 unwind label %ehcleanup98

invoke.cont64:                                    ; preds = %invoke.cont62
  %call67 = invoke noundef nonnull align 8 dereferenceable(8) ptr @"??$?6U?$char_traits@D@std@@@std@@YAAEAV?$basic_ostream@DU?$char_traits@D@std@@@0@AEAV10@PEBD@Z"(ptr noundef nonnull align 8 dereferenceable(8) @"?cout@std@@3V?$basic_ostream@DU?$char_traits@D@std@@@1@A", ptr noundef nonnull @"??_C@_0P@FBBLEHHE@?6Sorted?5List?3?6?$AA@")
          to label %invoke.cont66 unwind label %ehcleanup98

invoke.cont66:                                    ; preds = %invoke.cont64
  %20 = load ptr, ptr %_Mylast.i, align 8, !noalias !22
  %name.i = getelementptr inbounds nuw i8, ptr %s, i64 8
  %_Mysize13.i.i.i = getelementptr inbounds nuw i8, ptr %s, i64 24
  %_Myres14.i.i.i = getelementptr inbounds nuw i8, ptr %s, i64 32
  %marks.i = getelementptr inbounds nuw i8, ptr %s, i64 40
  br label %for.cond68

for.cond68:                                       ; preds = %"??1Student@@QEAA@XZ.exit", %invoke.cont66
  %__begin1.sroa.0.0 = phi ptr [ %14, %invoke.cont66 ], [ %incdec.ptr.i.i, %"??1Student@@QEAA@XZ.exit" ]
  %cmp.i.i.not = icmp eq ptr %__begin1.sroa.0.0, %20
  br i1 %cmp.i.i.not, label %if.then.i.i131, label %for.body71

if.then.i.i131:                                   ; preds = %for.cond68
  %_Myend4.i.i = getelementptr inbounds nuw i8, ptr %students, i64 16
  %cmp.not3.i.i.i = icmp eq ptr %14, %20
  br i1 %cmp.not3.i.i.i, label %"??$_Destroy_range@V?$allocator@UStudent@@@std@@@std@@YAXPEAUStudent@@QEAU1@AEAV?$allocator@UStudent@@@0@@Z.exit.i.i", label %for.body.i.i.i

for.body.i.i.i:                                   ; preds = %if.then.i.i131, %"??$destroy@UStudent@@@?$_Default_allocator_traits@V?$allocator@UStudent@@@std@@@std@@SAXAEAV?$allocator@UStudent@@@1@QEAUStudent@@@Z.exit.i.i.i"
  %_First.addr.04.i.i.i = phi ptr [ %incdec.ptr.i.i.i, %"??$destroy@UStudent@@@?$_Default_allocator_traits@V?$allocator@UStudent@@@std@@@std@@SAXAEAV?$allocator@UStudent@@@1@QEAUStudent@@@Z.exit.i.i.i" ], [ %14, %if.then.i.i131 ]
  %name.i.i.i.i.i = getelementptr inbounds nuw i8, ptr %_First.addr.04.i.i.i, i64 8
  %_Myres.i.i.i.i.i.i.i.i132 = getelementptr inbounds nuw i8, ptr %_First.addr.04.i.i.i, i64 32
  %21 = load i64, ptr %_Myres.i.i.i.i.i.i.i.i132, align 8
  %cmp.i.i.i.i.i.i.i.i = icmp ugt i64 %21, 15
  br i1 %cmp.i.i.i.i.i.i.i.i, label %if.then.i.i.i.i.i.i.i, label %"??$destroy@UStudent@@@?$_Default_allocator_traits@V?$allocator@UStudent@@@std@@@std@@SAXAEAV?$allocator@UStudent@@@1@QEAUStudent@@@Z.exit.i.i.i"

if.then.i.i.i.i.i.i.i:                            ; preds = %for.body.i.i.i
  %22 = load ptr, ptr %name.i.i.i.i.i, align 8
  %add.i.i.i.i.i.i.i.i135 = add i64 %21, 1
  %cmp.i.i.i.i.i.i.i.i.i.i = icmp ugt i64 %add.i.i.i.i.i.i.i.i135, 4095
  br i1 %cmp.i.i.i.i.i.i.i.i.i.i, label %if.then.i.i.i.i.i.i.i.i.i.i, label %"?_Deallocate_for_capacity@?$basic_string@DU?$char_traits@D@std@@V?$allocator@D@2@@std@@CAXAEAV?$allocator@D@2@QEAD_K@Z.exit.i.i.i.i.i.i.i"

if.then.i.i.i.i.i.i.i.i.i.i:                      ; preds = %if.then.i.i.i.i.i.i.i
  %arrayidx.i.i.i.i.i.i.i.i.i.i.i = getelementptr inbounds i8, ptr %22, i64 -8
  %23 = load i64, ptr %arrayidx.i.i.i.i.i.i.i.i.i.i.i, align 8
  %24 = ptrtoint ptr %22 to i64
  %reass.sub.i.i.i.i.i.i.i.i.i.i.i = add i64 %24, -8
  %25 = sub i64 %reass.sub.i.i.i.i.i.i.i.i.i.i.i, %23
  %or.cond.i.i.i.i.i.i.i.i.i.i.i = icmp ult i64 %25, 32
  br i1 %or.cond.i.i.i.i.i.i.i.i.i.i.i, label %"?_Adjust_manually_vector_aligned@std@@YAXAEAPEAXAEA_K@Z.exit.i.i.i.i.i.i.i.i.i.i", label %if.then.i.i.i.i.i.i.i.i.i.i.i

if.then.i.i.i.i.i.i.i.i.i.i.i:                    ; preds = %if.then.i.i.i.i.i.i.i.i.i.i
  call void @llvm.trap()
  unreachable

"?_Adjust_manually_vector_aligned@std@@YAXAEAPEAXAEA_K@Z.exit.i.i.i.i.i.i.i.i.i.i": ; preds = %if.then.i.i.i.i.i.i.i.i.i.i
  %add.i.i.i.i.i.i.i.i.i.i.i = add i64 %21, 40
  %26 = inttoptr i64 %23 to ptr
  br label %"?_Deallocate_for_capacity@?$basic_string@DU?$char_traits@D@std@@V?$allocator@D@2@@std@@CAXAEAV?$allocator@D@2@QEAD_K@Z.exit.i.i.i.i.i.i.i"

"?_Deallocate_for_capacity@?$basic_string@DU?$char_traits@D@std@@V?$allocator@D@2@@std@@CAXAEAV?$allocator@D@2@QEAD_K@Z.exit.i.i.i.i.i.i.i": ; preds = %"?_Adjust_manually_vector_aligned@std@@YAXAEAPEAXAEA_K@Z.exit.i.i.i.i.i.i.i.i.i.i", %if.then.i.i.i.i.i.i.i
  %_Bytes.addr.0.i.i.i.i.i.i.i.i.i.i = phi i64 [ %add.i.i.i.i.i.i.i.i.i.i.i, %"?_Adjust_manually_vector_aligned@std@@YAXAEAPEAXAEA_K@Z.exit.i.i.i.i.i.i.i.i.i.i" ], [ %add.i.i.i.i.i.i.i.i135, %if.then.i.i.i.i.i.i.i ]
  %_Ptr.addr.0.i.i.i.i.i.i.i.i.i.i = phi ptr [ %26, %"?_Adjust_manually_vector_aligned@std@@YAXAEAPEAXAEA_K@Z.exit.i.i.i.i.i.i.i.i.i.i" ], [ %22, %if.then.i.i.i.i.i.i.i ]
  call void @"??3@YAXPEAX_K@Z"(ptr noundef %_Ptr.addr.0.i.i.i.i.i.i.i.i.i.i, i64 noundef %_Bytes.addr.0.i.i.i.i.i.i.i.i.i.i) #15
  br label %"??$destroy@UStudent@@@?$_Default_allocator_traits@V?$allocator@UStudent@@@std@@@std@@SAXAEAV?$allocator@UStudent@@@1@QEAUStudent@@@Z.exit.i.i.i"

"??$destroy@UStudent@@@?$_Default_allocator_traits@V?$allocator@UStudent@@@std@@@std@@SAXAEAV?$allocator@UStudent@@@1@QEAUStudent@@@Z.exit.i.i.i": ; preds = %"?_Deallocate_for_capacity@?$basic_string@DU?$char_traits@D@std@@V?$allocator@D@2@@std@@CAXAEAV?$allocator@D@2@QEAD_K@Z.exit.i.i.i.i.i.i.i", %for.body.i.i.i
  %_Mysize.i.i.i.i.i.i.i = getelementptr inbounds nuw i8, ptr %_First.addr.04.i.i.i, i64 24
  store i64 0, ptr %_Mysize.i.i.i.i.i.i.i, align 8
  store i64 15, ptr %_Myres.i.i.i.i.i.i.i.i132, align 8
  store i8 0, ptr %name.i.i.i.i.i, align 8
  %incdec.ptr.i.i.i = getelementptr inbounds nuw i8, ptr %_First.addr.04.i.i.i, i64 48
  %cmp.not.i.i.i133 = icmp eq ptr %incdec.ptr.i.i.i, %20
  br i1 %cmp.not.i.i.i133, label %"??$_Destroy_range@V?$allocator@UStudent@@@std@@@std@@YAXPEAUStudent@@QEAU1@AEAV?$allocator@UStudent@@@0@@Z.exit.i.i", label %for.body.i.i.i, !llvm.loop !25

"??$_Destroy_range@V?$allocator@UStudent@@@std@@@std@@YAXPEAUStudent@@QEAU1@AEAV?$allocator@UStudent@@@0@@Z.exit.i.i": ; preds = %"??$destroy@UStudent@@@?$_Default_allocator_traits@V?$allocator@UStudent@@@std@@@std@@SAXAEAV?$allocator@UStudent@@@1@QEAUStudent@@@Z.exit.i.i.i", %if.then.i.i131
  %27 = load ptr, ptr %_Myend4.i.i, align 8
  %sub.ptr.lhs.cast.i.i = ptrtoint ptr %27 to i64
  %sub.ptr.rhs.cast.i.i = ptrtoint ptr %14 to i64
  %sub.ptr.sub.i.i = sub i64 %sub.ptr.lhs.cast.i.i, %sub.ptr.rhs.cast.i.i
  %cmp.i.i.i.i134 = icmp ugt i64 %sub.ptr.sub.i.i, 4095
  br i1 %cmp.i.i.i.i134, label %if.then.i.i.i.i, label %"??1?$vector@UStudent@@V?$allocator@UStudent@@@std@@@std@@QEAA@XZ.exit"

if.then.i.i.i.i:                                  ; preds = %"??$_Destroy_range@V?$allocator@UStudent@@@std@@@std@@YAXPEAUStudent@@QEAU1@AEAV?$allocator@UStudent@@@0@@Z.exit.i.i"
  %arrayidx.i.i.i.i.i = getelementptr inbounds i8, ptr %14, i64 -8
  %28 = load i64, ptr %arrayidx.i.i.i.i.i, align 8
  %reass.sub.i.i.i.i.i = add i64 %sub.ptr.rhs.cast.i.i, -8
  %29 = sub i64 %reass.sub.i.i.i.i.i, %28
  %or.cond.i.i.i.i.i = icmp ult i64 %29, 32
  br i1 %or.cond.i.i.i.i.i, label %"?_Adjust_manually_vector_aligned@std@@YAXAEAPEAXAEA_K@Z.exit.i.i.i.i", label %if.then.i.i.i.i.i

if.then.i.i.i.i.i:                                ; preds = %if.then.i.i.i.i
  call void @llvm.trap()
  unreachable

"?_Adjust_manually_vector_aligned@std@@YAXAEAPEAXAEA_K@Z.exit.i.i.i.i": ; preds = %if.then.i.i.i.i
  %add.i.i.i.i.i = add i64 %sub.ptr.sub.i.i, 39
  %30 = inttoptr i64 %28 to ptr
  br label %"??1?$vector@UStudent@@V?$allocator@UStudent@@@std@@@std@@QEAA@XZ.exit"

"??1?$vector@UStudent@@V?$allocator@UStudent@@@std@@@std@@QEAA@XZ.exit": ; preds = %"??$_Destroy_range@V?$allocator@UStudent@@@std@@@std@@YAXPEAUStudent@@QEAU1@AEAV?$allocator@UStudent@@@0@@Z.exit.i.i", %"?_Adjust_manually_vector_aligned@std@@YAXAEAPEAXAEA_K@Z.exit.i.i.i.i"
  %_Bytes.addr.0.i.i.i.i = phi i64 [ %add.i.i.i.i.i, %"?_Adjust_manually_vector_aligned@std@@YAXAEAPEAXAEA_K@Z.exit.i.i.i.i" ], [ %sub.ptr.sub.i.i, %"??$_Destroy_range@V?$allocator@UStudent@@@std@@@std@@YAXPEAUStudent@@QEAU1@AEAV?$allocator@UStudent@@@0@@Z.exit.i.i" ]
  %_Ptr.addr.0.i.i.i.i = phi ptr [ %30, %"?_Adjust_manually_vector_aligned@std@@YAXAEAPEAXAEA_K@Z.exit.i.i.i.i" ], [ %14, %"??$_Destroy_range@V?$allocator@UStudent@@@std@@@std@@YAXPEAUStudent@@QEAU1@AEAV?$allocator@UStudent@@@0@@Z.exit.i.i" ]
  call void @"??3@YAXPEAX_K@Z"(ptr noundef %_Ptr.addr.0.i.i.i.i, i64 noundef %_Bytes.addr.0.i.i.i.i) #15
  call void @llvm.lifetime.end.p0(ptr nonnull %students) #15
  ret i32 0

for.body71:                                       ; preds = %for.cond68
  call void @llvm.lifetime.start.p0(ptr nonnull %s) #15
  %31 = load i32, ptr %__begin1.sroa.0.0, align 8
  store i32 %31, ptr %s, align 8
  %name3.i = getelementptr inbounds nuw i8, ptr %__begin1.sroa.0.0, i64 8
  call void @llvm.memset.p0.i64(ptr noundef nonnull align 8 dereferenceable(32) %name.i, i8 0, i64 32, i1 false)
  %_Mysize.i.i136 = getelementptr inbounds nuw i8, ptr %__begin1.sroa.0.0, i64 24
  %32 = load i64, ptr %_Mysize.i.i136, align 8
  %_Myres.i.i.i.i137 = getelementptr inbounds nuw i8, ptr %__begin1.sroa.0.0, i64 32
  %33 = load i64, ptr %_Myres.i.i.i.i137, align 8
  %cmp.i.i.i.i138 = icmp ugt i64 %33, 15
  %34 = load ptr, ptr %name3.i, align 8
  %spec.select.i.i.i139 = select i1 %cmp.i.i.i.i138, ptr %34, ptr %name3.i
  %cmp.i.i.i140 = icmp slt i64 %32, 0
  br i1 %cmp.i.i.i140, label %if.then.i.i.i148, label %if.end.i.i.i

if.then.i.i.i148:                                 ; preds = %for.body71
  invoke void @"?_Xlen_string@std@@YAXXZ"() #30
          to label %.noexc unwind label %ehcleanup98

.noexc:                                           ; preds = %if.then.i.i.i148
  unreachable

if.end.i.i.i:                                     ; preds = %for.body71
  %cmp5.i.i.i = icmp samesign ult i64 %32, 16
  br i1 %cmp5.i.i.i, label %if.then6.i.i.i, label %if.end8.i.i.i

if.then6.i.i.i:                                   ; preds = %if.end.i.i.i
  store i64 %32, ptr %_Mysize13.i.i.i, align 8
  store i64 15, ptr %_Myres14.i.i.i, align 8
  call void @llvm.memcpy.p0.p0.i64(ptr noundef nonnull align 8 dereferenceable(32) %name.i, ptr noundef nonnull align 1 dereferenceable(16) %spec.select.i.i.i139, i64 16, i1 false)
  br label %invoke.cont73

if.end8.i.i.i:                                    ; preds = %if.end.i.i.i
  %or.i.i.i.i = or i64 %32, 15
  %.sroa.speculated.i.i.i.i = call i64 @llvm.umax.i64(i64 %or.i.i.i.i, i64 22)
  %cmp1.i.i.i.i.i.i.i141 = icmp samesign ugt i64 %or.i.i.i.i, 4094
  br i1 %cmp1.i.i.i.i.i.i.i141, label %"??$_Allocate_manually_vector_aligned@U_Default_allocate_traits@std@@@std@@YAPEAX_K@Z.exit.i.i.i.i.i.i.i", label %if.end3.i.i.i.i.i.i.i142

"??$_Allocate_manually_vector_aligned@U_Default_allocate_traits@std@@@std@@YAPEAX_K@Z.exit.i.i.i.i.i.i.i": ; preds = %if.end8.i.i.i
  %add.i.i.i.i.i.i.i.i144 = add nuw i64 %.sroa.speculated.i.i.i.i, 40
  %call.i.i.i.i.i.i.i9.i.i149 = invoke noalias noundef nonnull ptr @"??2@YAPEAX_K@Z"(i64 noundef %add.i.i.i.i.i.i.i.i144) #31
          to label %call.i.i.i.i.i.i.i9.i.i.noexc unwind label %ehcleanup98

call.i.i.i.i.i.i.i9.i.i.noexc:                    ; preds = %"??$_Allocate_manually_vector_aligned@U_Default_allocate_traits@std@@@std@@YAPEAX_K@Z.exit.i.i.i.i.i.i.i"
  %35 = ptrtoint ptr %call.i.i.i.i.i.i.i9.i.i149 to i64
  %add4.i.i.i.i.i.i.i.i145 = add i64 %35, 39
  %and.i.i.i.i.i.i.i.i146 = and i64 %add4.i.i.i.i.i.i.i.i145, -32
  %36 = inttoptr i64 %and.i.i.i.i.i.i.i.i146 to ptr
  %arrayidx.i.i.i.i.i.i.i.i147 = getelementptr inbounds i8, ptr %36, i64 -8
  store i64 %35, ptr %arrayidx.i.i.i.i.i.i.i.i147, align 8
  br label %"??$_Allocate_for_capacity@$0A@@?$basic_string@DU?$char_traits@D@std@@V?$allocator@D@2@@std@@CAPEADAEAV?$allocator@D@1@AEA_K@Z.exit.i.i.i"

if.end3.i.i.i.i.i.i.i142:                         ; preds = %if.end8.i.i.i
  %inc.i.i.i.i = add nuw nsw i64 %.sroa.speculated.i.i.i.i, 1
  %call.i.i.i.i.i.i10.i.i150 = invoke noalias noundef nonnull ptr @"??2@YAPEAX_K@Z"(i64 noundef %inc.i.i.i.i) #31
          to label %"??$_Allocate_for_capacity@$0A@@?$basic_string@DU?$char_traits@D@std@@V?$allocator@D@2@@std@@CAPEADAEAV?$allocator@D@1@AEA_K@Z.exit.i.i.i" unwind label %ehcleanup98

"??$_Allocate_for_capacity@$0A@@?$basic_string@DU?$char_traits@D@std@@V?$allocator@D@2@@std@@CAPEADAEAV?$allocator@D@1@AEA_K@Z.exit.i.i.i": ; preds = %if.end3.i.i.i.i.i.i.i142, %call.i.i.i.i.i.i.i9.i.i.noexc
  %retval.0.i.i.i.i.i.i.i143 = phi ptr [ %36, %call.i.i.i.i.i.i.i9.i.i.noexc ], [ %call.i.i.i.i.i.i10.i.i150, %if.end3.i.i.i.i.i.i.i142 ]
  store ptr %retval.0.i.i.i.i.i.i.i143, ptr %name.i, align 8
  store i64 %32, ptr %_Mysize13.i.i.i, align 8
  store i64 %.sroa.speculated.i.i.i.i, ptr %_Myres14.i.i.i, align 8
  %add.i.i.i = add nuw i64 %32, 1
  call void @llvm.memcpy.p0.p0.i64(ptr noundef nonnull align 1 dereferenceable(1) %retval.0.i.i.i.i.i.i.i143, ptr noundef nonnull align 1 dereferenceable(1) %spec.select.i.i.i139, i64 %add.i.i.i, i1 false)
  %.pre = load i32, ptr %s, align 8
  br label %invoke.cont73

invoke.cont73:                                    ; preds = %"??$_Allocate_for_capacity@$0A@@?$basic_string@DU?$char_traits@D@std@@V?$allocator@D@2@@std@@CAPEADAEAV?$allocator@D@1@AEA_K@Z.exit.i.i.i", %if.then6.i.i.i
  %37 = phi i32 [ %.pre, %"??$_Allocate_for_capacity@$0A@@?$basic_string@DU?$char_traits@D@std@@V?$allocator@D@2@@std@@CAPEADAEAV?$allocator@D@1@AEA_K@Z.exit.i.i.i" ], [ %31, %if.then6.i.i.i ]
  %marks4.i = getelementptr inbounds nuw i8, ptr %__begin1.sroa.0.0, i64 40
  %38 = load float, ptr %marks4.i, align 8
  store float %38, ptr %marks.i, align 8
  %call77 = invoke noundef nonnull align 8 dereferenceable(8) ptr @"??6?$basic_ostream@DU?$char_traits@D@std@@@std@@QEAAAEAV01@H@Z"(ptr noundef nonnull align 8 dereferenceable(8) @"?cout@std@@3V?$basic_ostream@DU?$char_traits@D@std@@@1@A", i32 noundef %37)
          to label %invoke.cont76 unwind label %ehcleanup90

invoke.cont76:                                    ; preds = %invoke.cont73
  %call79 = invoke noundef nonnull align 8 dereferenceable(8) ptr @"??$?6U?$char_traits@D@std@@@std@@YAAEAV?$basic_ostream@DU?$char_traits@D@std@@@0@AEAV10@PEBD@Z"(ptr noundef nonnull align 8 dereferenceable(8) %call77, ptr noundef nonnull @"??_C@_01CLKCMJKC@?5?$AA@")
          to label %invoke.cont78 unwind label %ehcleanup90

invoke.cont78:                                    ; preds = %invoke.cont76
  %39 = load i64, ptr %_Mysize13.i.i.i, align 8
  %40 = load i64, ptr %_Myres14.i.i.i, align 8
  %cmp.i.i.i.i153 = icmp ugt i64 %40, 15
  %41 = load ptr, ptr %name.i, align 8
  %spec.select.i.i.i154 = select i1 %cmp.i.i.i.i153, ptr %41, ptr %name.i
  %call2.i155 = invoke noundef nonnull align 8 dereferenceable(8) ptr @"??$_Insert_string@DU?$char_traits@D@std@@_K@std@@YAAEAV?$basic_ostream@DU?$char_traits@D@std@@@0@AEAV10@QEBD_K@Z"(ptr noundef nonnull align 8 dereferenceable(8) %call79, ptr noundef %spec.select.i.i.i154, i64 noundef %39)
          to label %invoke.cont81 unwind label %ehcleanup90

invoke.cont81:                                    ; preds = %invoke.cont78
  %call84 = invoke noundef nonnull align 8 dereferenceable(8) ptr @"??$?6U?$char_traits@D@std@@@std@@YAAEAV?$basic_ostream@DU?$char_traits@D@std@@@0@AEAV10@PEBD@Z"(ptr noundef nonnull align 8 dereferenceable(8) %call2.i155, ptr noundef nonnull @"??_C@_01CLKCMJKC@?5?$AA@")
          to label %invoke.cont83 unwind label %ehcleanup90

invoke.cont83:                                    ; preds = %invoke.cont81
  %42 = load float, ptr %marks.i, align 8
  %call87 = invoke noundef nonnull align 8 dereferenceable(8) ptr @"??6?$basic_ostream@DU?$char_traits@D@std@@@std@@QEAAAEAV01@M@Z"(ptr noundef nonnull align 8 dereferenceable(8) %call84, float noundef %42)
          to label %invoke.cont86 unwind label %ehcleanup90

invoke.cont86:                                    ; preds = %invoke.cont83
  %call.i157158 = invoke noundef nonnull align 8 dereferenceable(8) ptr @"??$endl@DU?$char_traits@D@std@@@std@@YAAEAV?$basic_ostream@DU?$char_traits@D@std@@@0@AEAV10@@Z"(ptr noundef nonnull align 8 dereferenceable(8) %call87)
          to label %invoke.cont88 unwind label %ehcleanup90

invoke.cont88:                                    ; preds = %invoke.cont86
  %43 = load i64, ptr %_Myres14.i.i.i, align 8
  %cmp.i.i.i.i162 = icmp ugt i64 %43, 15
  br i1 %cmp.i.i.i.i162, label %if.then.i.i.i164, label %"??1Student@@QEAA@XZ.exit"

if.then.i.i.i164:                                 ; preds = %invoke.cont88
  %44 = load ptr, ptr %name.i, align 8
  %add.i.i.i.i = add i64 %43, 1
  %cmp.i.i.i.i.i.i = icmp ugt i64 %add.i.i.i.i, 4095
  br i1 %cmp.i.i.i.i.i.i, label %if.then.i.i.i.i.i.i, label %"?_Deallocate_for_capacity@?$basic_string@DU?$char_traits@D@std@@V?$allocator@D@2@@std@@CAXAEAV?$allocator@D@2@QEAD_K@Z.exit.i.i.i"

if.then.i.i.i.i.i.i:                              ; preds = %if.then.i.i.i164
  %arrayidx.i.i.i.i.i.i.i = getelementptr inbounds i8, ptr %44, i64 -8
  %45 = load i64, ptr %arrayidx.i.i.i.i.i.i.i, align 8
  %46 = ptrtoint ptr %44 to i64
  %reass.sub.i.i.i.i.i.i.i = add i64 %46, -8
  %47 = sub i64 %reass.sub.i.i.i.i.i.i.i, %45
  %or.cond.i.i.i.i.i.i.i = icmp ult i64 %47, 32
  br i1 %or.cond.i.i.i.i.i.i.i, label %"?_Adjust_manually_vector_aligned@std@@YAXAEAPEAXAEA_K@Z.exit.i.i.i.i.i.i", label %if.then.i.i.i.i.i.i.i165

if.then.i.i.i.i.i.i.i165:                         ; preds = %if.then.i.i.i.i.i.i
  call void @llvm.trap()
  unreachable

"?_Adjust_manually_vector_aligned@std@@YAXAEAPEAXAEA_K@Z.exit.i.i.i.i.i.i": ; preds = %if.then.i.i.i.i.i.i
  %add.i.i.i.i.i.i.i = add i64 %43, 40
  %48 = inttoptr i64 %45 to ptr
  br label %"?_Deallocate_for_capacity@?$basic_string@DU?$char_traits@D@std@@V?$allocator@D@2@@std@@CAXAEAV?$allocator@D@2@QEAD_K@Z.exit.i.i.i"

"?_Deallocate_for_capacity@?$basic_string@DU?$char_traits@D@std@@V?$allocator@D@2@@std@@CAXAEAV?$allocator@D@2@QEAD_K@Z.exit.i.i.i": ; preds = %"?_Adjust_manually_vector_aligned@std@@YAXAEAPEAXAEA_K@Z.exit.i.i.i.i.i.i", %if.then.i.i.i164
  %_Bytes.addr.0.i.i.i.i.i.i = phi i64 [ %add.i.i.i.i.i.i.i, %"?_Adjust_manually_vector_aligned@std@@YAXAEAPEAXAEA_K@Z.exit.i.i.i.i.i.i" ], [ %add.i.i.i.i, %if.then.i.i.i164 ]
  %_Ptr.addr.0.i.i.i.i.i.i = phi ptr [ %48, %"?_Adjust_manually_vector_aligned@std@@YAXAEAPEAXAEA_K@Z.exit.i.i.i.i.i.i" ], [ %44, %if.then.i.i.i164 ]
  call void @"??3@YAXPEAX_K@Z"(ptr noundef %_Ptr.addr.0.i.i.i.i.i.i, i64 noundef %_Bytes.addr.0.i.i.i.i.i.i) #15
  br label %"??1Student@@QEAA@XZ.exit"

"??1Student@@QEAA@XZ.exit":                       ; preds = %invoke.cont88, %"?_Deallocate_for_capacity@?$basic_string@DU?$char_traits@D@std@@V?$allocator@D@2@@std@@CAXAEAV?$allocator@D@2@QEAD_K@Z.exit.i.i.i"
  call void @llvm.lifetime.end.p0(ptr nonnull %s) #15
  %incdec.ptr.i.i = getelementptr inbounds nuw i8, ptr %__begin1.sroa.0.0, i64 48
  br label %for.cond68

ehcleanup90:                                      ; preds = %invoke.cont86, %invoke.cont78, %invoke.cont83, %invoke.cont81, %invoke.cont76, %invoke.cont73
  %49 = cleanuppad within none []
  call void @"??1Student@@QEAA@XZ"(ptr noundef nonnull align 8 dereferenceable(48) %s) #15 [ "funclet"(token %49) ]
  cleanupret from %49 unwind label %ehcleanup98

ehcleanup98:                                      ; preds = %for.cond.cleanup, %if.end3.i.i.i.i.i.i.i142, %"??$_Allocate_manually_vector_aligned@U_Default_allocate_traits@std@@@std@@YAPEAX_K@Z.exit.i.i.i.i.i.i.i", %if.then.i.i.i148, %invoke.cont62, %invoke.cont52, %invoke.cont42, %invoke.cont21, %invoke.cont9, %invoke.cont5, %ehcleanup90, %for.body, %invoke.cont, %invoke.cont7, %invoke.cont13, %invoke.cont15, %invoke.cont19, %invoke.cont64, %invoke.cont58, %invoke.cont56, %invoke.cont50, %invoke.cont46, %invoke.cont44, %invoke.cont39, %invoke.cont38
  %50 = cleanuppad within none []
  call void @"??1?$vector@UStudent@@V?$allocator@UStudent@@@std@@@std@@QEAA@XZ"(ptr noundef nonnull align 8 dereferenceable(24) %students) #15 [ "funclet"(token %50) ]
  call void @llvm.lifetime.end.p0(ptr nonnull %students) #15
  cleanupret from %50 unwind to caller
}

; Function Attrs: mustprogress nocallback nofree nosync nounwind willreturn memory(argmem: readwrite)
declare void @llvm.lifetime.start.p0(ptr captures(none)) #1

; Function Attrs: mustprogress uwtable
define linkonce_odr dso_local noundef nonnull align 8 dereferenceable(8) ptr @"??$?6U?$char_traits@D@std@@@std@@YAAEAV?$basic_ostream@DU?$char_traits@D@std@@@0@AEAV10@PEBD@Z"(ptr noundef nonnull align 8 dereferenceable(8) %_Ostr, ptr noundef %_Val) local_unnamed_addr #2 comdat personality ptr @__CxxFrameHandler3 {
entry:
  %agg.tmp.i = alloca %"class.std::error_code", align 8
  %tmp.i.i.i = alloca %"class.std::ios_base::failure", align 8
  %ref.tmp.i.i.i = alloca %"class.std::error_code", align 8
  %_Ok = alloca %"class.std::basic_ostream<char>::sentry", align 8
  %call.i = tail call noundef i64 @strlen(ptr noundef nonnull dereferenceable(1) %_Val) #15
  %vbtable = load ptr, ptr %_Ostr, align 8
  %0 = getelementptr inbounds nuw i8, ptr %vbtable, i64 4
  %vbase_offs = load i32, ptr %0, align 4
  %1 = sext i32 %vbase_offs to i64
  %add.ptr = getelementptr inbounds i8, ptr %_Ostr, i64 %1
  %_Wide.i = getelementptr inbounds nuw i8, ptr %add.ptr, i64 40
  %2 = load i64, ptr %_Wide.i, align 8
  %cmp = icmp sgt i64 %2, 0
  %cmp7.not = icmp sgt i64 %2, %call.i
  %or.cond190 = and i1 %cmp, %cmp7.not
  %sub = sub nsw i64 %2, %call.i
  %cond = select i1 %or.cond190, i64 %sub, i64 0
  call void @llvm.lifetime.start.p0(ptr nonnull %_Ok) #15
  store ptr %_Ostr, ptr %_Ok, align 8
  %_Mystrbuf.i.i.i = getelementptr inbounds nuw i8, ptr %add.ptr, i64 72
  %3 = load ptr, ptr %_Mystrbuf.i.i.i, align 8
  %tobool.not.i.i = icmp eq ptr %3, null
  br i1 %tobool.not.i.i, label %"??0_Sentry_base@?$basic_ostream@DU?$char_traits@D@std@@@std@@QEAA@AEAV12@@Z.exit.i", label %if.then.i.i

if.then.i.i:                                      ; preds = %entry
  %vtable.i.i = load ptr, ptr %3, align 8
  %vfn.i.i = getelementptr inbounds nuw i8, ptr %vtable.i.i, i64 8
  %4 = load ptr, ptr %vfn.i.i, align 8
  tail call void %4(ptr noundef nonnull align 8 dereferenceable(104) %3)
  %vbtable.pre.i = load ptr, ptr %_Ostr, align 8
  %.phi.trans.insert.i = getelementptr inbounds nuw i8, ptr %vbtable.pre.i, i64 4
  %vbase_offs.pre.i = load i32, ptr %.phi.trans.insert.i, align 4
  %.pre.i = sext i32 %vbase_offs.pre.i to i64
  br label %"??0_Sentry_base@?$basic_ostream@DU?$char_traits@D@std@@@std@@QEAA@AEAV12@@Z.exit.i"

"??0_Sentry_base@?$basic_ostream@DU?$char_traits@D@std@@@std@@QEAA@AEAV12@@Z.exit.i": ; preds = %if.then.i.i, %entry
  %vbtable16194 = phi ptr [ %vbtable, %entry ], [ %vbtable.pre.i, %if.then.i.i ]
  %.pre-phi.i = phi i64 [ %1, %entry ], [ %.pre.i, %if.then.i.i ]
  %add.ptr.i = getelementptr inbounds i8, ptr %_Ostr, i64 %.pre-phi.i
  %_Mystate.i.i.i = getelementptr inbounds nuw i8, ptr %add.ptr.i, i64 16
  %5 = load i32, ptr %_Mystate.i.i.i, align 8
  %cmp.i.i = icmp eq i32 %5, 0
  br i1 %cmp.i.i, label %if.end.i, label %"??0sentry@?$basic_ostream@DU?$char_traits@D@std@@@std@@QEAA@AEAV12@@Z.exit.thread205"

"??0sentry@?$basic_ostream@DU?$char_traits@D@std@@@std@@QEAA@AEAV12@@Z.exit.thread205": ; preds = %"??0_Sentry_base@?$basic_ostream@DU?$char_traits@D@std@@@std@@QEAA@AEAV12@@Z.exit.i"
  %_Ok.i = getelementptr inbounds nuw i8, ptr %_Ok, i64 8
  store i8 0, ptr %_Ok.i, align 8
  br label %if.end88

if.end.i:                                         ; preds = %"??0_Sentry_base@?$basic_ostream@DU?$char_traits@D@std@@@std@@QEAA@AEAV12@@Z.exit.i"
  %_Tiestr.i.i = getelementptr inbounds nuw i8, ptr %add.ptr.i, i64 80
  %6 = load ptr, ptr %_Tiestr.i.i, align 8
  %tobool.not.i = icmp eq ptr %6, null
  %cmp.i = icmp eq ptr %6, %_Ostr
  %or.cond.i = or i1 %tobool.not.i, %cmp.i
  br i1 %or.cond.i, label %"??0sentry@?$basic_ostream@DU?$char_traits@D@std@@@std@@QEAA@AEAV12@@Z.exit.thread", label %if.end10.i

"??0sentry@?$basic_ostream@DU?$char_traits@D@std@@@std@@QEAA@AEAV12@@Z.exit.thread": ; preds = %if.end.i
  %_Ok9.i = getelementptr inbounds nuw i8, ptr %_Ok, i64 8
  store i8 1, ptr %_Ok9.i, align 8
  br label %if.else

if.end10.i:                                       ; preds = %if.end.i
  %call11.i = invoke noundef nonnull align 8 dereferenceable(8) ptr @"?flush@?$basic_ostream@DU?$char_traits@D@std@@@std@@QEAAAEAV12@XZ"(ptr noundef nonnull align 8 dereferenceable(8) %6)
          to label %"??0sentry@?$basic_ostream@DU?$char_traits@D@std@@@std@@QEAA@AEAV12@@Z.exit" unwind label %ehcleanup.i

ehcleanup.i:                                      ; preds = %if.end10.i
  %7 = cleanuppad within none []
  call void @"??1_Sentry_base@?$basic_ostream@DU?$char_traits@D@std@@@std@@QEAA@XZ"(ptr noundef nonnull align 8 dereferenceable(16) %_Ok) #15 [ "funclet"(token %7) ]
  cleanupret from %7 unwind to caller

"??0sentry@?$basic_ostream@DU?$char_traits@D@std@@@std@@QEAA@AEAV12@@Z.exit": ; preds = %if.end10.i
  %vbtable13.i = load ptr, ptr %_Ostr, align 8
  %8 = getelementptr inbounds nuw i8, ptr %vbtable13.i, i64 4
  %vbase_offs14.i = load i32, ptr %8, align 4
  %9 = sext i32 %vbase_offs14.i to i64
  %add.ptr15.i = getelementptr inbounds i8, ptr %_Ostr, i64 %9
  %_Mystate.i.i25.i = getelementptr inbounds nuw i8, ptr %add.ptr15.i, i64 16
  %10 = load i32, ptr %_Mystate.i.i25.i, align 8
  %cmp.i26.i = icmp eq i32 %10, 0
  %_Ok17.i = getelementptr inbounds nuw i8, ptr %_Ok, i64 8
  %storedv.i = zext i1 %cmp.i26.i to i8
  store i8 %storedv.i, ptr %_Ok17.i, align 8
  br i1 %cmp.i26.i, label %if.else, label %if.end88

if.else:                                          ; preds = %"??0sentry@?$basic_ostream@DU?$char_traits@D@std@@@std@@QEAA@AEAV12@@Z.exit.thread", %"??0sentry@?$basic_ostream@DU?$char_traits@D@std@@@std@@QEAA@AEAV12@@Z.exit"
  %vbtable16204 = phi ptr [ %vbtable16194, %"??0sentry@?$basic_ostream@DU?$char_traits@D@std@@@std@@QEAA@AEAV12@@Z.exit.thread" ], [ %vbtable13.i, %"??0sentry@?$basic_ostream@DU?$char_traits@D@std@@@std@@QEAA@AEAV12@@Z.exit" ]
  %11 = getelementptr inbounds nuw i8, ptr %vbtable16204, i64 4
  %vbase_offs17 = load i32, ptr %11, align 4
  %12 = sext i32 %vbase_offs17 to i64
  %add.ptr18 = getelementptr inbounds i8, ptr %_Ostr, i64 %12
  %_Fmtfl.i = getelementptr inbounds nuw i8, ptr %add.ptr18, i64 24
  %13 = load i32, ptr %_Fmtfl.i, align 8
  %and = and i32 %13, 448
  %cmp20 = icmp ne i32 %and, 64
  %cmp22 = icmp sgt i64 %cond, 0
  %or.cond = select i1 %cmp20, i1 %cmp22, i1 false
  br i1 %or.cond, label %for.body, label %land.lhs.true

for.body:                                         ; preds = %if.else, %for.inc
  %_Pad.0 = phi i64 [ %dec, %for.inc ], [ %sub, %if.else ]
  %vbtable24 = load ptr, ptr %_Ostr, align 8
  %14 = getelementptr inbounds nuw i8, ptr %vbtable24, i64 4
  %vbase_offs25 = load i32, ptr %14, align 4
  %15 = sext i32 %vbase_offs25 to i64
  %add.ptr26 = getelementptr inbounds i8, ptr %_Ostr, i64 %15
  %_Mystrbuf.i = getelementptr inbounds nuw i8, ptr %add.ptr26, i64 72
  %16 = load ptr, ptr %_Mystrbuf.i, align 8
  %_Fillch.i = getelementptr inbounds nuw i8, ptr %add.ptr26, i64 88
  %17 = load i8, ptr %_Fillch.i, align 8
  %_IPnext.i.i = getelementptr inbounds nuw i8, ptr %16, i64 64
  %18 = load ptr, ptr %_IPnext.i.i, align 8
  %19 = load ptr, ptr %18, align 8
  %tobool.not.i.i131 = icmp eq ptr %19, null
  br i1 %tobool.not.i.i131, label %cond.false.i, label %"?_Pnavail@?$basic_streambuf@DU?$char_traits@D@std@@@std@@IEBA_JXZ.exit.i"

"?_Pnavail@?$basic_streambuf@DU?$char_traits@D@std@@@std@@IEBA_JXZ.exit.i": ; preds = %for.body
  %_IPcount.i.i = getelementptr inbounds nuw i8, ptr %16, i64 88
  %20 = load ptr, ptr %_IPcount.i.i, align 8
  %21 = load i32, ptr %20, align 4
  %cmp.i132 = icmp sgt i32 %21, 0
  br i1 %cmp.i132, label %invoke.cont33.thread, label %cond.false.i

invoke.cont33.thread:                             ; preds = %"?_Pnavail@?$basic_streambuf@DU?$char_traits@D@std@@@std@@IEBA_JXZ.exit.i"
  %dec.i.i = add nsw i32 %21, -1
  store i32 %dec.i.i, ptr %20, align 4
  %22 = load ptr, ptr %_IPnext.i.i, align 8
  %23 = load ptr, ptr %22, align 8
  %incdec.ptr.i.i = getelementptr inbounds nuw i8, ptr %23, i64 1
  store ptr %incdec.ptr.i.i, ptr %22, align 8
  store i8 %17, ptr %23, align 1
  br label %for.inc

cond.false.i:                                     ; preds = %"?_Pnavail@?$basic_streambuf@DU?$char_traits@D@std@@@std@@IEBA_JXZ.exit.i", %for.body
  %conv.i9.i = zext i8 %17 to i32
  %vtable.i = load ptr, ptr %16, align 8
  %vfn.i = getelementptr inbounds nuw i8, ptr %vtable.i, i64 24
  %24 = load ptr, ptr %vfn.i, align 8
  %call5.i133 = invoke noundef i32 %24(ptr noundef nonnull align 8 dereferenceable(104) %16, i32 noundef %conv.i9.i)
          to label %invoke.cont33 unwind label %catch.dispatch

invoke.cont33:                                    ; preds = %cond.false.i
  %cmp.i134 = icmp eq i32 %call5.i133, -1
  br i1 %cmp.i134, label %if.end77, label %for.inc

for.inc:                                          ; preds = %invoke.cont33.thread, %invoke.cont33
  %dec = add nsw i64 %_Pad.0, -1
  %cmp22.old = icmp sgt i64 %_Pad.0, 1
  br i1 %cmp22.old, label %for.body, label %land.lhs.true.loopexit

land.lhs.true.loopexit:                           ; preds = %for.inc
  %vbtable42.pre = load ptr, ptr %_Ostr, align 8
  %.phi.trans.insert = getelementptr inbounds nuw i8, ptr %vbtable42.pre, i64 4
  %vbase_offs43.pre = load i32, ptr %.phi.trans.insert, align 4
  %.pre197 = sext i32 %vbase_offs43.pre to i64
  br label %land.lhs.true

land.lhs.true:                                    ; preds = %land.lhs.true.loopexit, %if.else
  %.pre-phi = phi i64 [ %.pre197, %land.lhs.true.loopexit ], [ %12, %if.else ]
  %_Pad.1.ph = phi i64 [ 0, %land.lhs.true.loopexit ], [ %cond, %if.else ]
  %add.ptr44 = getelementptr inbounds i8, ptr %_Ostr, i64 %.pre-phi
  %_Mystrbuf.i135 = getelementptr inbounds nuw i8, ptr %add.ptr44, i64 72
  %25 = load ptr, ptr %_Mystrbuf.i135, align 8
  %vtable.i136 = load ptr, ptr %25, align 8
  %vfn.i137 = getelementptr inbounds nuw i8, ptr %vtable.i136, i64 72
  %26 = load ptr, ptr %vfn.i137, align 8
  %call.i138139 = invoke noundef i64 %26(ptr noundef nonnull align 8 dereferenceable(104) %25, ptr noundef nonnull %_Val, i64 noundef %call.i)
          to label %if.end51 unwind label %catch.dispatch

if.end51:                                         ; preds = %land.lhs.true
  %cmp48.not = icmp eq i64 %call.i138139, %call.i
  %spec.select = select i1 %cmp48.not, i32 0, i32 4
  %cmp55 = icmp sgt i64 %_Pad.1.ph, 0
  %or.cond99 = select i1 %cmp48.not, i1 %cmp55, i1 false
  br i1 %or.cond99, label %for.body56, label %if.end77

for.body56:                                       ; preds = %if.end51, %for.inc74
  %_Pad.2 = phi i64 [ %dec75, %for.inc74 ], [ %_Pad.1.ph, %if.end51 ]
  %vbtable58 = load ptr, ptr %_Ostr, align 8
  %27 = getelementptr inbounds nuw i8, ptr %vbtable58, i64 4
  %vbase_offs59 = load i32, ptr %27, align 4
  %28 = sext i32 %vbase_offs59 to i64
  %add.ptr60 = getelementptr inbounds i8, ptr %_Ostr, i64 %28
  %_Mystrbuf.i140 = getelementptr inbounds nuw i8, ptr %add.ptr60, i64 72
  %29 = load ptr, ptr %_Mystrbuf.i140, align 8
  %_Fillch.i141 = getelementptr inbounds nuw i8, ptr %add.ptr60, i64 88
  %30 = load i8, ptr %_Fillch.i141, align 8
  %_IPnext.i.i142 = getelementptr inbounds nuw i8, ptr %29, i64 64
  %31 = load ptr, ptr %_IPnext.i.i142, align 8
  %32 = load ptr, ptr %31, align 8
  %tobool.not.i.i143 = icmp eq ptr %32, null
  br i1 %tobool.not.i.i143, label %cond.false.i147, label %"?_Pnavail@?$basic_streambuf@DU?$char_traits@D@std@@@std@@IEBA_JXZ.exit.i144"

"?_Pnavail@?$basic_streambuf@DU?$char_traits@D@std@@@std@@IEBA_JXZ.exit.i144": ; preds = %for.body56
  %_IPcount.i.i145 = getelementptr inbounds nuw i8, ptr %29, i64 88
  %33 = load ptr, ptr %_IPcount.i.i145, align 8
  %34 = load i32, ptr %33, align 4
  %cmp.i146 = icmp sgt i32 %34, 0
  br i1 %cmp.i146, label %invoke.cont67.thread, label %cond.false.i147

invoke.cont67.thread:                             ; preds = %"?_Pnavail@?$basic_streambuf@DU?$char_traits@D@std@@@std@@IEBA_JXZ.exit.i144"
  %dec.i.i153 = add nsw i32 %34, -1
  store i32 %dec.i.i153, ptr %33, align 4
  %35 = load ptr, ptr %_IPnext.i.i142, align 8
  %36 = load ptr, ptr %35, align 8
  %incdec.ptr.i.i154 = getelementptr inbounds nuw i8, ptr %36, i64 1
  store ptr %incdec.ptr.i.i154, ptr %35, align 8
  store i8 %30, ptr %36, align 1
  br label %for.inc74

cond.false.i147:                                  ; preds = %"?_Pnavail@?$basic_streambuf@DU?$char_traits@D@std@@@std@@IEBA_JXZ.exit.i144", %for.body56
  %conv.i9.i148 = zext i8 %30 to i32
  %vtable.i149 = load ptr, ptr %29, align 8
  %vfn.i150 = getelementptr inbounds nuw i8, ptr %vtable.i149, i64 24
  %37 = load ptr, ptr %vfn.i150, align 8
  %call5.i157 = invoke noundef i32 %37(ptr noundef nonnull align 8 dereferenceable(104) %29, i32 noundef %conv.i9.i148)
          to label %invoke.cont67 unwind label %catch.dispatch

catch.dispatch:                                   ; preds = %cond.false.i147, %land.lhs.true, %cond.false.i
  %_State.3 = phi i32 [ %spec.select, %cond.false.i147 ], [ 0, %land.lhs.true ], [ 0, %cond.false.i ]
  %38 = catchswitch within none [label %catch] unwind label %ehcleanup

catch:                                            ; preds = %catch.dispatch
  %39 = catchpad within %38 [ptr null, i32 64, ptr null]
  %vbtable84 = load ptr, ptr %_Ostr, align 8
  %40 = getelementptr inbounds nuw i8, ptr %vbtable84, i64 4
  %vbase_offs85 = load i32, ptr %40, align 4
  %41 = sext i32 %vbase_offs85 to i64
  %add.ptr86 = getelementptr inbounds i8, ptr %_Ostr, i64 %41
  invoke void @"?setstate@?$basic_ios@DU?$char_traits@D@std@@@std@@QEAAXH_N@Z"(ptr noundef nonnull align 8 dereferenceable(96) %add.ptr86, i32 noundef 4, i1 noundef zeroext true) [ "funclet"(token %39) ]
          to label %invoke.cont87 unwind label %ehcleanup

invoke.cont87:                                    ; preds = %catch
  catchret from %39 to label %if.end88

invoke.cont67:                                    ; preds = %cond.false.i147
  %cmp.i159 = icmp eq i32 %call5.i157, -1
  br i1 %cmp.i159, label %if.end77, label %for.inc74

for.inc74:                                        ; preds = %invoke.cont67.thread, %invoke.cont67
  %dec75 = add nsw i64 %_Pad.2, -1
  %cmp55.old = icmp sgt i64 %_Pad.2, 1
  br i1 %cmp55.old, label %for.body56, label %if.end77

if.end77:                                         ; preds = %invoke.cont33, %invoke.cont67, %for.inc74, %if.end51
  %_State.2 = phi i32 [ %spec.select, %if.end51 ], [ %spec.select, %for.inc74 ], [ 4, %invoke.cont67 ], [ 4, %invoke.cont33 ]
  %vbtable79 = load ptr, ptr %_Ostr, align 8
  %42 = getelementptr inbounds nuw i8, ptr %vbtable79, i64 4
  %vbase_offs80 = load i32, ptr %42, align 4
  %43 = sext i32 %vbase_offs80 to i64
  %add.ptr81 = getelementptr inbounds i8, ptr %_Ostr, i64 %43
  %_Wide.i160 = getelementptr inbounds nuw i8, ptr %add.ptr81, i64 40
  store i64 0, ptr %_Wide.i160, align 8
  br label %if.end88

if.end88:                                         ; preds = %"??0sentry@?$basic_ostream@DU?$char_traits@D@std@@@std@@QEAA@AEAV12@@Z.exit.thread205", %"??0sentry@?$basic_ostream@DU?$char_traits@D@std@@@std@@QEAA@AEAV12@@Z.exit", %if.end77, %invoke.cont87
  %_State.4 = phi i32 [ %_State.2, %if.end77 ], [ %_State.3, %invoke.cont87 ], [ 4, %"??0sentry@?$basic_ostream@DU?$char_traits@D@std@@@std@@QEAA@AEAV12@@Z.exit" ], [ 4, %"??0sentry@?$basic_ostream@DU?$char_traits@D@std@@@std@@QEAA@AEAV12@@Z.exit.thread205" ]
  %vbtable90 = load ptr, ptr %_Ostr, align 8
  %44 = getelementptr inbounds nuw i8, ptr %vbtable90, i64 4
  %vbase_offs91 = load i32, ptr %44, align 4
  %45 = sext i32 %vbase_offs91 to i64
  %add.ptr92 = getelementptr inbounds i8, ptr %_Ostr, i64 %45
  %_Mystate.i.i = getelementptr inbounds nuw i8, ptr %add.ptr92, i64 16
  %46 = load i32, ptr %_Mystate.i.i, align 8
  %or.i = or i32 %46, %_State.4
  %_Mystrbuf.i.i = getelementptr inbounds nuw i8, ptr %add.ptr92, i64 72
  %47 = load ptr, ptr %_Mystrbuf.i.i, align 8
  %tobool.not.i.i161 = icmp eq ptr %47, null
  %cond.i.i = select i1 %tobool.not.i.i161, i32 4, i32 0
  call void @llvm.lifetime.start.p0(ptr nonnull %tmp.i.i.i)
  %_State.masked.i.i = and i32 %or.i, 23
  %and.i.i.i = or i32 %cond.i.i, %_State.masked.i.i
  store i32 %and.i.i.i, ptr %_Mystate.i.i, align 8
  %_Except.i.i.i = getelementptr inbounds nuw i8, ptr %add.ptr92, i64 20
  %48 = load i32, ptr %_Except.i.i.i, align 4
  %and2.i.i.i = and i32 %48, %and.i.i.i
  %tobool.not.i.i.i = icmp eq i32 %and2.i.i.i, 0
  br i1 %tobool.not.i.i.i, label %invoke.cont93, label %if.then.i.i.i

if.then.i.i.i:                                    ; preds = %if.end88
  %and4.i.i.i = and i32 %and2.i.i.i, 4
  %tobool5.not.i.i.i = icmp eq i32 %and4.i.i.i, 0
  %and7.i.i.i = and i32 %and2.i.i.i, 2
  %tobool8.not.i.i.i = icmp eq i32 %and7.i.i.i, 0
  %"??_C@_0BF@OOHOMBOF@ios_base?3?3eofbit?5set?$AA@.??_C@_0BG@FMKFHCIL@ios_base?3?3failbit?5set?$AA@.i.i.i" = select i1 %tobool8.not.i.i.i, ptr @"??_C@_0BF@OOHOMBOF@ios_base?3?3eofbit?5set?$AA@", ptr @"??_C@_0BG@FMKFHCIL@ios_base?3?3failbit?5set?$AA@"
  %_Msg.0.i.i.i = select i1 %tobool5.not.i.i.i, ptr %"??_C@_0BF@OOHOMBOF@ios_base?3?3eofbit?5set?$AA@.??_C@_0BG@FMKFHCIL@ios_base?3?3failbit?5set?$AA@.i.i.i", ptr @"??_C@_0BF@PHHKMMFD@ios_base?3?3badbit?5set?$AA@"
  call void @llvm.lifetime.start.p0(ptr nonnull %ref.tmp.i.i.i) #15
  call void @"?make_error_code@std@@YA?AVerror_code@1@W4io_errc@1@@Z"(ptr dead_on_unwind nonnull writable sret(%"class.std::error_code") align 8 %ref.tmp.i.i.i, i32 noundef 1) #15
  call void @llvm.lifetime.start.p0(ptr nonnull %agg.tmp.i)
  call void @llvm.memcpy.p0.p0.i64(ptr noundef nonnull align 8 dereferenceable(16) %agg.tmp.i, ptr noundef nonnull align 8 dereferenceable(16) %ref.tmp.i.i.i, i64 16, i1 false)
  %call.i174175 = invoke noundef ptr @"??0system_error@std@@QEAA@Verror_code@1@PEBD@Z"(ptr noundef nonnull align 8 dereferenceable(40) %tmp.i.i.i, ptr dead_on_return noundef nonnull %agg.tmp.i, ptr noundef nonnull %_Msg.0.i.i.i)
          to label %call.i.i.i.noexc unwind label %ehcleanup

call.i.i.i.noexc:                                 ; preds = %if.then.i.i.i
  store ptr @"??_7failure@ios_base@std@@6B@", ptr %tmp.i.i.i, align 8
  call void @llvm.lifetime.end.p0(ptr nonnull %agg.tmp.i)
  invoke void @_CxxThrowException(ptr nonnull %tmp.i.i.i, ptr nonnull @"_TI5?AVfailure@ios_base@std@@") #30
          to label %.noexc unwind label %ehcleanup

.noexc:                                           ; preds = %call.i.i.i.noexc
  unreachable

invoke.cont93:                                    ; preds = %if.end88
  call void @llvm.lifetime.end.p0(ptr nonnull %tmp.i.i.i)
  %call.i163 = tail call noundef zeroext i1 @"?uncaught_exception@std@@YA_NXZ"() #15
  %.pre = load ptr, ptr %_Ok, align 8
  br i1 %call.i163, label %if.end.i165, label %if.then.i164

if.then.i164:                                     ; preds = %invoke.cont93
  tail call void @"?_Osfx@?$basic_ostream@DU?$char_traits@D@std@@@std@@QEAAXXZ"(ptr noundef nonnull align 8 dereferenceable(8) %.pre) #15
  br label %if.end.i165

if.end.i165:                                      ; preds = %if.then.i164, %invoke.cont93
  %vbtable.i.i166 = load ptr, ptr %.pre, align 8
  %49 = getelementptr inbounds nuw i8, ptr %vbtable.i.i166, i64 4
  %vbase_offs.i.i167 = load i32, ptr %49, align 4
  %50 = sext i32 %vbase_offs.i.i167 to i64
  %add.ptr.i.i168 = getelementptr inbounds i8, ptr %.pre, i64 %50
  %_Mystrbuf.i.i.i169 = getelementptr inbounds nuw i8, ptr %add.ptr.i.i168, i64 72
  %51 = load ptr, ptr %_Mystrbuf.i.i.i169, align 8
  %tobool.not.i.i170 = icmp eq ptr %51, null
  br i1 %tobool.not.i.i170, label %"??1sentry@?$basic_ostream@DU?$char_traits@D@std@@@std@@QEAA@XZ.exit", label %if.then.i.i171

if.then.i.i171:                                   ; preds = %if.end.i165
  %vtable.i.i172 = load ptr, ptr %51, align 8
  %vfn.i.i173 = getelementptr inbounds nuw i8, ptr %vtable.i.i172, i64 16
  %52 = load ptr, ptr %vfn.i.i173, align 8
  invoke void %52(ptr noundef nonnull align 8 dereferenceable(104) %51)
          to label %"??1sentry@?$basic_ostream@DU?$char_traits@D@std@@@std@@QEAA@XZ.exit" unwind label %terminate.i.i

terminate.i.i:                                    ; preds = %if.then.i.i171
  %53 = cleanuppad within none []
  call void @__std_terminate() #32 [ "funclet"(token %53) ]
  unreachable

"??1sentry@?$basic_ostream@DU?$char_traits@D@std@@@std@@QEAA@XZ.exit": ; preds = %if.end.i165, %if.then.i.i171
  call void @llvm.lifetime.end.p0(ptr nonnull %_Ok) #15
  ret ptr %_Ostr

ehcleanup:                                        ; preds = %if.then.i.i.i, %call.i.i.i.noexc, %catch, %catch.dispatch
  %54 = cleanuppad within none []
  call void @"??1sentry@?$basic_ostream@DU?$char_traits@D@std@@@std@@QEAA@XZ"(ptr noundef nonnull align 8 dereferenceable(16) %_Ok) #15 [ "funclet"(token %54) ]
  call void @llvm.lifetime.end.p0(ptr nonnull %_Ok) #15
  cleanupret from %54 unwind to caller
}

; Function Attrs: mustprogress nocallback nofree nosync nounwind willreturn memory(argmem: readwrite)
declare void @llvm.lifetime.end.p0(ptr captures(none)) #1

declare dso_local i32 @__CxxFrameHandler3(...)

; Function Attrs: mustprogress uwtable
define linkonce_odr dso_local noundef nonnull align 8 dereferenceable(8) ptr @"??6?$basic_ostream@DU?$char_traits@D@std@@@std@@QEAAAEAV01@H@Z"(ptr noundef nonnull align 8 dereferenceable(8) %this, i32 noundef %_Val) local_unnamed_addr #2 comdat align 2 personality ptr @__CxxFrameHandler3 {
entry:
  %agg.tmp.i89 = alloca %"class.std::error_code", align 8
  %tmp.i.i.i = alloca %"class.std::ios_base::failure", align 8
  %ref.tmp.i.i.i = alloca %"class.std::error_code", align 8
  %agg.tmp.i = alloca %"class.std::ostreambuf_iterator", align 8
  %_Ok = alloca %"class.std::basic_ostream<char>::sentry", align 8
  %ref.tmp = alloca %"class.std::locale", align 8
  %ref.tmp12 = alloca %"class.std::ostreambuf_iterator", align 8
  call void @llvm.lifetime.start.p0(ptr nonnull %_Ok) #15
  store ptr %this, ptr %_Ok, align 8
  %vbtable.i.i = load ptr, ptr %this, align 8
  %0 = getelementptr inbounds nuw i8, ptr %vbtable.i.i, i64 4
  %vbase_offs.i.i = load i32, ptr %0, align 4
  %1 = sext i32 %vbase_offs.i.i to i64
  %add.ptr.i.i = getelementptr inbounds i8, ptr %this, i64 %1
  %_Mystrbuf.i.i.i = getelementptr inbounds nuw i8, ptr %add.ptr.i.i, i64 72
  %2 = load ptr, ptr %_Mystrbuf.i.i.i, align 8
  %tobool.not.i.i = icmp eq ptr %2, null
  br i1 %tobool.not.i.i, label %"??0_Sentry_base@?$basic_ostream@DU?$char_traits@D@std@@@std@@QEAA@AEAV12@@Z.exit.i", label %if.then.i.i

if.then.i.i:                                      ; preds = %entry
  %vtable.i.i = load ptr, ptr %2, align 8
  %vfn.i.i = getelementptr inbounds nuw i8, ptr %vtable.i.i, i64 8
  %3 = load ptr, ptr %vfn.i.i, align 8
  tail call void %3(ptr noundef nonnull align 8 dereferenceable(104) %2)
  %vbtable.pre.i = load ptr, ptr %this, align 8
  %.phi.trans.insert.i = getelementptr inbounds nuw i8, ptr %vbtable.pre.i, i64 4
  %vbase_offs.pre.i = load i32, ptr %.phi.trans.insert.i, align 4
  %.pre.i = sext i32 %vbase_offs.pre.i to i64
  br label %"??0_Sentry_base@?$basic_ostream@DU?$char_traits@D@std@@@std@@QEAA@AEAV12@@Z.exit.i"

"??0_Sentry_base@?$basic_ostream@DU?$char_traits@D@std@@@std@@QEAA@AEAV12@@Z.exit.i": ; preds = %if.then.i.i, %entry
  %vbtable94 = phi ptr [ %vbtable.i.i, %entry ], [ %vbtable.pre.i, %if.then.i.i ]
  %.pre-phi.i = phi i64 [ %1, %entry ], [ %.pre.i, %if.then.i.i ]
  %add.ptr.i = getelementptr inbounds i8, ptr %this, i64 %.pre-phi.i
  %_Mystate.i.i.i = getelementptr inbounds nuw i8, ptr %add.ptr.i, i64 16
  %4 = load i32, ptr %_Mystate.i.i.i, align 8
  %cmp.i.i = icmp eq i32 %4, 0
  br i1 %cmp.i.i, label %if.end.i, label %"??0sentry@?$basic_ostream@DU?$char_traits@D@std@@@std@@QEAA@AEAV12@@Z.exit.thread102"

"??0sentry@?$basic_ostream@DU?$char_traits@D@std@@@std@@QEAA@AEAV12@@Z.exit.thread102": ; preds = %"??0_Sentry_base@?$basic_ostream@DU?$char_traits@D@std@@@std@@QEAA@AEAV12@@Z.exit.i"
  %_Ok.i = getelementptr inbounds nuw i8, ptr %_Ok, i64 8
  store i8 0, ptr %_Ok.i, align 8
  br label %if.end41

if.end.i:                                         ; preds = %"??0_Sentry_base@?$basic_ostream@DU?$char_traits@D@std@@@std@@QEAA@AEAV12@@Z.exit.i"
  %_Tiestr.i.i = getelementptr inbounds nuw i8, ptr %add.ptr.i, i64 80
  %5 = load ptr, ptr %_Tiestr.i.i, align 8
  %tobool.not.i = icmp eq ptr %5, null
  %cmp.i = icmp eq ptr %5, %this
  %or.cond.i = or i1 %tobool.not.i, %cmp.i
  br i1 %or.cond.i, label %"??0sentry@?$basic_ostream@DU?$char_traits@D@std@@@std@@QEAA@AEAV12@@Z.exit.thread", label %if.end10.i

"??0sentry@?$basic_ostream@DU?$char_traits@D@std@@@std@@QEAA@AEAV12@@Z.exit.thread": ; preds = %if.end.i
  %_Ok9.i = getelementptr inbounds nuw i8, ptr %_Ok, i64 8
  store i8 1, ptr %_Ok9.i, align 8
  br label %if.then

if.end10.i:                                       ; preds = %if.end.i
  %call11.i = invoke noundef nonnull align 8 dereferenceable(8) ptr @"?flush@?$basic_ostream@DU?$char_traits@D@std@@@std@@QEAAAEAV12@XZ"(ptr noundef nonnull align 8 dereferenceable(8) %5)
          to label %"??0sentry@?$basic_ostream@DU?$char_traits@D@std@@@std@@QEAA@AEAV12@@Z.exit" unwind label %ehcleanup.i

ehcleanup.i:                                      ; preds = %if.end10.i
  %6 = cleanuppad within none []
  call void @"??1_Sentry_base@?$basic_ostream@DU?$char_traits@D@std@@@std@@QEAA@XZ"(ptr noundef nonnull align 8 dereferenceable(16) %_Ok) #15 [ "funclet"(token %6) ]
  cleanupret from %6 unwind to caller

"??0sentry@?$basic_ostream@DU?$char_traits@D@std@@@std@@QEAA@AEAV12@@Z.exit": ; preds = %if.end10.i
  %vbtable13.i = load ptr, ptr %this, align 8
  %7 = getelementptr inbounds nuw i8, ptr %vbtable13.i, i64 4
  %vbase_offs14.i = load i32, ptr %7, align 4
  %8 = sext i32 %vbase_offs14.i to i64
  %add.ptr15.i = getelementptr inbounds i8, ptr %this, i64 %8
  %_Mystate.i.i25.i = getelementptr inbounds nuw i8, ptr %add.ptr15.i, i64 16
  %9 = load i32, ptr %_Mystate.i.i25.i, align 8
  %cmp.i26.i = icmp eq i32 %9, 0
  %_Ok17.i = getelementptr inbounds nuw i8, ptr %_Ok, i64 8
  %storedv.i = zext i1 %cmp.i26.i to i8
  store i8 %storedv.i, ptr %_Ok17.i, align 8
  br i1 %cmp.i26.i, label %if.then, label %if.end41

if.then:                                          ; preds = %"??0sentry@?$basic_ostream@DU?$char_traits@D@std@@@std@@QEAA@AEAV12@@Z.exit.thread", %"??0sentry@?$basic_ostream@DU?$char_traits@D@std@@@std@@QEAA@AEAV12@@Z.exit"
  %vbtable101 = phi ptr [ %vbtable94, %"??0sentry@?$basic_ostream@DU?$char_traits@D@std@@@std@@QEAA@AEAV12@@Z.exit.thread" ], [ %vbtable13.i, %"??0sentry@?$basic_ostream@DU?$char_traits@D@std@@@std@@QEAA@AEAV12@@Z.exit" ]
  call void @llvm.lifetime.start.p0(ptr nonnull %ref.tmp) #15
  %10 = getelementptr inbounds nuw i8, ptr %vbtable101, i64 4
  %vbase_offs = load i32, ptr %10, align 4
  %11 = sext i32 %vbase_offs to i64
  %add.ptr = getelementptr inbounds i8, ptr %this, i64 %11
  tail call void @llvm.experimental.noalias.scope.decl(metadata !26)
  %_Ploc.i = getelementptr inbounds nuw i8, ptr %add.ptr, i64 64
  %12 = load ptr, ptr %_Ploc.i, align 8, !noalias !26
  %_Ptr.i.i = getelementptr inbounds nuw i8, ptr %ref.tmp, i64 8
  %_Ptr2.i.i = getelementptr inbounds nuw i8, ptr %12, i64 8
  %13 = load ptr, ptr %_Ptr2.i.i, align 8, !noalias !26
  store ptr %13, ptr %_Ptr.i.i, align 8, !alias.scope !26
  %vtable.i.i54 = load ptr, ptr %13, align 8, !noalias !26
  %vfn.i.i55 = getelementptr inbounds nuw i8, ptr %vtable.i.i54, i64 8
  %14 = load ptr, ptr %vfn.i.i55, align 8, !noalias !26
  tail call void %14(ptr noundef nonnull align 8 dereferenceable(16) %13) #15, !noalias !26
  %call3 = invoke noundef nonnull align 8 dereferenceable(16) ptr @"??$use_facet@V?$num_put@DV?$ostreambuf_iterator@DU?$char_traits@D@std@@@std@@@std@@@std@@YAAEBV?$num_put@DV?$ostreambuf_iterator@DU?$char_traits@D@std@@@std@@@0@AEBVlocale@0@@Z"(ptr noundef nonnull align 8 dereferenceable(16) %ref.tmp)
          to label %invoke.cont unwind label %ehcleanup

invoke.cont:                                      ; preds = %if.then
  %15 = load ptr, ptr %_Ptr.i.i, align 8
  %tobool.not.i56 = icmp eq ptr %15, null
  br i1 %tobool.not.i56, label %"??1locale@std@@QEAA@XZ.exit", label %if.then.i57

if.then.i57:                                      ; preds = %invoke.cont
  %vtable.i = load ptr, ptr %15, align 8
  %vfn.i = getelementptr inbounds nuw i8, ptr %vtable.i, i64 16
  %16 = load ptr, ptr %vfn.i, align 8
  %call.i = call noundef ptr %16(ptr noundef nonnull align 8 dereferenceable(16) %15) #15
  %isnull.i = icmp eq ptr %call.i, null
  br i1 %isnull.i, label %"??1locale@std@@QEAA@XZ.exit", label %delete.notnull.i

delete.notnull.i:                                 ; preds = %if.then.i57
  %vtable3.i = load ptr, ptr %call.i, align 8
  %17 = load ptr, ptr %vtable3.i, align 8
  %call5.i = call noundef ptr %17(ptr noundef nonnull align 8 dereferenceable(8) %call.i, i32 noundef 1) #15
  br label %"??1locale@std@@QEAA@XZ.exit"

"??1locale@std@@QEAA@XZ.exit":                    ; preds = %invoke.cont, %if.then.i57, %delete.notnull.i
  call void @llvm.lifetime.end.p0(ptr nonnull %ref.tmp) #15
  %vbtable6 = load ptr, ptr %this, align 8
  %18 = getelementptr inbounds nuw i8, ptr %vbtable6, i64 4
  call void @llvm.lifetime.start.p0(ptr nonnull %ref.tmp12) #15
  %vbase_offs15 = load i32, ptr %18, align 4
  %19 = sext i32 %vbase_offs15 to i64
  %add.ptr16 = getelementptr inbounds i8, ptr %this, i64 %19
  %_Fillch.i = getelementptr inbounds nuw i8, ptr %add.ptr16, i64 88
  %20 = load i8, ptr %_Fillch.i, align 8
  %_Mystrbuf.i = getelementptr inbounds nuw i8, ptr %add.ptr16, i64 72
  %21 = load ptr, ptr %_Mystrbuf.i, align 8
  call void @llvm.lifetime.start.p0(ptr nonnull %agg.tmp.i)
  store i8 0, ptr %agg.tmp.i, align 8, !noalias !29
  %agg.tmp.sroa.292.0.agg.tmp.i.sroa_idx = getelementptr inbounds nuw i8, ptr %agg.tmp.i, i64 8
  store ptr %21, ptr %agg.tmp.sroa.292.0.agg.tmp.i.sroa_idx, align 8, !noalias !29
  %vtable.i59 = load ptr, ptr %call3, align 8, !noalias !29
  %vfn.i60 = getelementptr inbounds nuw i8, ptr %vtable.i59, i64 72
  %22 = load ptr, ptr %vfn.i60, align 8, !noalias !29
  invoke void %22(ptr noundef nonnull align 8 dereferenceable(16) %call3, ptr dead_on_unwind nonnull writable sret(%"class.std::ostreambuf_iterator") align 8 %ref.tmp12, ptr dead_on_return noundef nonnull %agg.tmp.i, ptr noundef nonnull align 8 dereferenceable(72) %add.ptr16, i8 noundef %20, i32 noundef %_Val)
          to label %invoke.cont28 unwind label %catch.dispatch

ehcleanup:                                        ; preds = %if.then
  %23 = cleanuppad within none []
  %24 = load ptr, ptr %_Ptr.i.i, align 8
  %tobool.not.i62 = icmp eq ptr %24, null
  br i1 %tobool.not.i62, label %"??1locale@std@@QEAA@XZ.exit74", label %if.then.i63

if.then.i63:                                      ; preds = %ehcleanup
  %vtable.i64 = load ptr, ptr %24, align 8
  %vfn.i65 = getelementptr inbounds nuw i8, ptr %vtable.i64, i64 16
  %25 = load ptr, ptr %vfn.i65, align 8
  %call.i66 = call noundef ptr %25(ptr noundef nonnull align 8 dereferenceable(16) %24) #15 [ "funclet"(token %23) ]
  %isnull.i67 = icmp eq ptr %call.i66, null
  br i1 %isnull.i67, label %"??1locale@std@@QEAA@XZ.exit74", label %delete.notnull.i68

delete.notnull.i68:                               ; preds = %if.then.i63
  %vtable3.i69 = load ptr, ptr %call.i66, align 8
  %26 = load ptr, ptr %vtable3.i69, align 8
  %call5.i70 = call noundef ptr %26(ptr noundef nonnull align 8 dereferenceable(8) %call.i66, i32 noundef 1) #15 [ "funclet"(token %23) ]
  br label %"??1locale@std@@QEAA@XZ.exit74"

"??1locale@std@@QEAA@XZ.exit74":                  ; preds = %ehcleanup, %if.then.i63, %delete.notnull.i68
  call void @llvm.lifetime.end.p0(ptr nonnull %ref.tmp) #15
  cleanupret from %23 unwind label %ehcleanup47

invoke.cont28:                                    ; preds = %"??1locale@std@@QEAA@XZ.exit"
  call void @llvm.lifetime.end.p0(ptr nonnull %agg.tmp.i)
  %27 = load i8, ptr %ref.tmp12, align 8, !range !32, !noundef !33
  call void @llvm.lifetime.end.p0(ptr nonnull %ref.tmp12) #15
  %28 = shl nuw nsw i8 %27, 2
  %spec.select = zext nneg i8 %28 to i32
  br label %if.end41

catch.dispatch:                                   ; preds = %"??1locale@std@@QEAA@XZ.exit"
  %29 = catchswitch within none [label %catch] unwind label %ehcleanup47

catch:                                            ; preds = %catch.dispatch
  %30 = catchpad within %29 [ptr null, i32 64, ptr null]
  %vbtable34 = load ptr, ptr %this, align 8
  %31 = getelementptr inbounds nuw i8, ptr %vbtable34, i64 4
  %vbase_offs35 = load i32, ptr %31, align 4
  %32 = sext i32 %vbase_offs35 to i64
  %add.ptr36 = getelementptr inbounds i8, ptr %this, i64 %32
  invoke void @"?setstate@?$basic_ios@DU?$char_traits@D@std@@@std@@QEAAXH_N@Z"(ptr noundef nonnull align 8 dereferenceable(96) %add.ptr36, i32 noundef 4, i1 noundef zeroext true) [ "funclet"(token %30) ]
          to label %invoke.cont37 unwind label %ehcleanup47

invoke.cont37:                                    ; preds = %catch
  catchret from %30 to label %if.end41

if.end41:                                         ; preds = %"??0sentry@?$basic_ostream@DU?$char_traits@D@std@@@std@@QEAA@AEAV12@@Z.exit.thread102", %invoke.cont28, %invoke.cont37, %"??0sentry@?$basic_ostream@DU?$char_traits@D@std@@@std@@QEAA@AEAV12@@Z.exit"
  %_State.1 = phi i32 [ 0, %"??0sentry@?$basic_ostream@DU?$char_traits@D@std@@@std@@QEAA@AEAV12@@Z.exit" ], [ 0, %invoke.cont37 ], [ %spec.select, %invoke.cont28 ], [ 0, %"??0sentry@?$basic_ostream@DU?$char_traits@D@std@@@std@@QEAA@AEAV12@@Z.exit.thread102" ]
  %vbtable43 = load ptr, ptr %this, align 8
  %33 = getelementptr inbounds nuw i8, ptr %vbtable43, i64 4
  %vbase_offs44 = load i32, ptr %33, align 4
  %34 = sext i32 %vbase_offs44 to i64
  %add.ptr45 = getelementptr inbounds i8, ptr %this, i64 %34
  %_Mystate.i.i = getelementptr inbounds nuw i8, ptr %add.ptr45, i64 16
  %35 = load i32, ptr %_Mystate.i.i, align 8
  %or.i = or i32 %35, %_State.1
  %_Mystrbuf.i.i = getelementptr inbounds nuw i8, ptr %add.ptr45, i64 72
  %36 = load ptr, ptr %_Mystrbuf.i.i, align 8
  %tobool.not.i.i76 = icmp eq ptr %36, null
  %cond.i.i = select i1 %tobool.not.i.i76, i32 4, i32 0
  call void @llvm.lifetime.start.p0(ptr nonnull %tmp.i.i.i)
  %_State.masked.i.i = and i32 %or.i, 23
  %and.i.i.i = or i32 %cond.i.i, %_State.masked.i.i
  store i32 %and.i.i.i, ptr %_Mystate.i.i, align 8
  %_Except.i.i.i = getelementptr inbounds nuw i8, ptr %add.ptr45, i64 20
  %37 = load i32, ptr %_Except.i.i.i, align 4
  %and2.i.i.i = and i32 %37, %and.i.i.i
  %tobool.not.i.i.i = icmp eq i32 %and2.i.i.i, 0
  br i1 %tobool.not.i.i.i, label %invoke.cont46, label %if.then.i.i.i

if.then.i.i.i:                                    ; preds = %if.end41
  %and4.i.i.i = and i32 %and2.i.i.i, 4
  %tobool5.not.i.i.i = icmp eq i32 %and4.i.i.i, 0
  %and7.i.i.i = and i32 %and2.i.i.i, 2
  %tobool8.not.i.i.i = icmp eq i32 %and7.i.i.i, 0
  %"??_C@_0BF@OOHOMBOF@ios_base?3?3eofbit?5set?$AA@.??_C@_0BG@FMKFHCIL@ios_base?3?3failbit?5set?$AA@.i.i.i" = select i1 %tobool8.not.i.i.i, ptr @"??_C@_0BF@OOHOMBOF@ios_base?3?3eofbit?5set?$AA@", ptr @"??_C@_0BG@FMKFHCIL@ios_base?3?3failbit?5set?$AA@"
  %_Msg.0.i.i.i = select i1 %tobool5.not.i.i.i, ptr %"??_C@_0BF@OOHOMBOF@ios_base?3?3eofbit?5set?$AA@.??_C@_0BG@FMKFHCIL@ios_base?3?3failbit?5set?$AA@.i.i.i", ptr @"??_C@_0BF@PHHKMMFD@ios_base?3?3badbit?5set?$AA@"
  call void @llvm.lifetime.start.p0(ptr nonnull %ref.tmp.i.i.i) #15
  call void @"?make_error_code@std@@YA?AVerror_code@1@W4io_errc@1@@Z"(ptr dead_on_unwind nonnull writable sret(%"class.std::error_code") align 8 %ref.tmp.i.i.i, i32 noundef 1) #15
  call void @llvm.lifetime.start.p0(ptr nonnull %agg.tmp.i89)
  call void @llvm.memcpy.p0.p0.i64(ptr noundef nonnull align 8 dereferenceable(16) %agg.tmp.i89, ptr noundef nonnull align 8 dereferenceable(16) %ref.tmp.i.i.i, i64 16, i1 false)
  %call.i9091 = invoke noundef ptr @"??0system_error@std@@QEAA@Verror_code@1@PEBD@Z"(ptr noundef nonnull align 8 dereferenceable(40) %tmp.i.i.i, ptr dead_on_return noundef nonnull %agg.tmp.i89, ptr noundef nonnull %_Msg.0.i.i.i)
          to label %call.i.i.i.noexc unwind label %ehcleanup47

call.i.i.i.noexc:                                 ; preds = %if.then.i.i.i
  store ptr @"??_7failure@ios_base@std@@6B@", ptr %tmp.i.i.i, align 8
  call void @llvm.lifetime.end.p0(ptr nonnull %agg.tmp.i89)
  invoke void @_CxxThrowException(ptr nonnull %tmp.i.i.i, ptr nonnull @"_TI5?AVfailure@ios_base@std@@") #30
          to label %.noexc unwind label %ehcleanup47

.noexc:                                           ; preds = %call.i.i.i.noexc
  unreachable

invoke.cont46:                                    ; preds = %if.end41
  call void @llvm.lifetime.end.p0(ptr nonnull %tmp.i.i.i)
  %call.i78 = call noundef zeroext i1 @"?uncaught_exception@std@@YA_NXZ"() #15
  br i1 %call.i78, label %if.end.i80, label %if.then.i79

if.then.i79:                                      ; preds = %invoke.cont46
  %38 = load ptr, ptr %_Ok, align 8, !nonnull !33, !align !34
  call void @"?_Osfx@?$basic_ostream@DU?$char_traits@D@std@@@std@@QEAAXXZ"(ptr noundef nonnull align 8 dereferenceable(8) %38) #15
  br label %if.end.i80

if.end.i80:                                       ; preds = %if.then.i79, %invoke.cont46
  %39 = load ptr, ptr %_Ok, align 8, !nonnull !33, !align !34
  %vbtable.i.i81 = load ptr, ptr %39, align 8
  %40 = getelementptr inbounds nuw i8, ptr %vbtable.i.i81, i64 4
  %vbase_offs.i.i82 = load i32, ptr %40, align 4
  %41 = sext i32 %vbase_offs.i.i82 to i64
  %add.ptr.i.i83 = getelementptr inbounds i8, ptr %39, i64 %41
  %_Mystrbuf.i.i.i84 = getelementptr inbounds nuw i8, ptr %add.ptr.i.i83, i64 72
  %42 = load ptr, ptr %_Mystrbuf.i.i.i84, align 8
  %tobool.not.i.i85 = icmp eq ptr %42, null
  br i1 %tobool.not.i.i85, label %"??1sentry@?$basic_ostream@DU?$char_traits@D@std@@@std@@QEAA@XZ.exit", label %if.then.i.i86

if.then.i.i86:                                    ; preds = %if.end.i80
  %vtable.i.i87 = load ptr, ptr %42, align 8
  %vfn.i.i88 = getelementptr inbounds nuw i8, ptr %vtable.i.i87, i64 16
  %43 = load ptr, ptr %vfn.i.i88, align 8
  invoke void %43(ptr noundef nonnull align 8 dereferenceable(104) %42)
          to label %"??1sentry@?$basic_ostream@DU?$char_traits@D@std@@@std@@QEAA@XZ.exit" unwind label %terminate.i.i

terminate.i.i:                                    ; preds = %if.then.i.i86
  %44 = cleanuppad within none []
  call void @__std_terminate() #32 [ "funclet"(token %44) ]
  unreachable

"??1sentry@?$basic_ostream@DU?$char_traits@D@std@@@std@@QEAA@XZ.exit": ; preds = %if.end.i80, %if.then.i.i86
  call void @llvm.lifetime.end.p0(ptr nonnull %_Ok) #15
  ret ptr %this

ehcleanup47:                                      ; preds = %if.then.i.i.i, %call.i.i.i.noexc, %catch.dispatch, %catch, %"??1locale@std@@QEAA@XZ.exit74"
  %45 = cleanuppad within none []
  call void @"??1sentry@?$basic_ostream@DU?$char_traits@D@std@@@std@@QEAA@XZ"(ptr noundef nonnull align 8 dereferenceable(16) %_Ok) #15 [ "funclet"(token %45) ]
  call void @llvm.lifetime.end.p0(ptr nonnull %_Ok) #15
  cleanupret from %45 unwind to caller
}

; Function Attrs: mustprogress uwtable
define linkonce_odr dso_local noundef nonnull align 8 dereferenceable(8) ptr @"??$endl@DU?$char_traits@D@std@@@std@@YAAEAV?$basic_ostream@DU?$char_traits@D@std@@@0@AEAV10@@Z"(ptr noundef nonnull align 8 dereferenceable(8) %_Ostr) local_unnamed_addr #2 comdat personality ptr @__CxxFrameHandler3 {
entry:
  %ref.tmp.i = alloca %"class.std::locale", align 8
  %vbtable = load ptr, ptr %_Ostr, align 8
  %0 = getelementptr inbounds nuw i8, ptr %vbtable, i64 4
  %vbase_offs = load i32, ptr %0, align 4
  %1 = sext i32 %vbase_offs to i64
  %add.ptr = getelementptr inbounds i8, ptr %_Ostr, i64 %1
  call void @llvm.lifetime.start.p0(ptr nonnull %ref.tmp.i) #15
  tail call void @llvm.experimental.noalias.scope.decl(metadata !35)
  %_Ploc.i.i = getelementptr inbounds nuw i8, ptr %add.ptr, i64 64
  %2 = load ptr, ptr %_Ploc.i.i, align 8, !noalias !35
  %_Ptr.i.i.i = getelementptr inbounds nuw i8, ptr %ref.tmp.i, i64 8
  %_Ptr2.i.i.i = getelementptr inbounds nuw i8, ptr %2, i64 8
  %3 = load ptr, ptr %_Ptr2.i.i.i, align 8, !noalias !35
  store ptr %3, ptr %_Ptr.i.i.i, align 8, !alias.scope !35
  %vtable.i.i.i = load ptr, ptr %3, align 8, !noalias !35
  %vfn.i.i.i = getelementptr inbounds nuw i8, ptr %vtable.i.i.i, i64 8
  %4 = load ptr, ptr %vfn.i.i.i, align 8, !noalias !35
  tail call void %4(ptr noundef nonnull align 8 dereferenceable(16) %3) #15, !noalias !35
  %call.i = invoke noundef nonnull align 8 dereferenceable(48) ptr @"??$use_facet@V?$ctype@D@std@@@std@@YAAEBV?$ctype@D@0@AEBVlocale@0@@Z"(ptr noundef nonnull align 8 dereferenceable(16) %ref.tmp.i)
          to label %invoke.cont.i unwind label %ehcleanup.i

invoke.cont.i:                                    ; preds = %entry
  %vtable.i.i = load ptr, ptr %call.i, align 8
  %vfn.i.i = getelementptr inbounds nuw i8, ptr %vtable.i.i, i64 64
  %5 = load ptr, ptr %vfn.i.i, align 8
  %call.i5.i = invoke noundef i8 %5(ptr noundef nonnull align 8 dereferenceable(48) %call.i, i8 noundef 10)
          to label %invoke.cont2.i unwind label %ehcleanup.i

invoke.cont2.i:                                   ; preds = %invoke.cont.i
  %6 = load ptr, ptr %_Ptr.i.i.i, align 8
  %tobool.not.i.i = icmp eq ptr %6, null
  br i1 %tobool.not.i.i, label %"?widen@?$basic_ios@DU?$char_traits@D@std@@@std@@QEBADD@Z.exit", label %if.then.i.i

if.then.i.i:                                      ; preds = %invoke.cont2.i
  %vtable.i6.i = load ptr, ptr %6, align 8
  %vfn.i7.i = getelementptr inbounds nuw i8, ptr %vtable.i6.i, i64 16
  %7 = load ptr, ptr %vfn.i7.i, align 8
  %call.i.i = call noundef ptr %7(ptr noundef nonnull align 8 dereferenceable(16) %6) #15
  %isnull.i.i = icmp eq ptr %call.i.i, null
  br i1 %isnull.i.i, label %"?widen@?$basic_ios@DU?$char_traits@D@std@@@std@@QEBADD@Z.exit", label %delete.notnull.i.i

delete.notnull.i.i:                               ; preds = %if.then.i.i
  %vtable3.i.i = load ptr, ptr %call.i.i, align 8
  %8 = load ptr, ptr %vtable3.i.i, align 8
  %call5.i.i = call noundef ptr %8(ptr noundef nonnull align 8 dereferenceable(8) %call.i.i, i32 noundef 1) #15
  br label %"?widen@?$basic_ios@DU?$char_traits@D@std@@@std@@QEBADD@Z.exit"

ehcleanup.i:                                      ; preds = %invoke.cont.i, %entry
  %9 = cleanuppad within none []
  %10 = load ptr, ptr %_Ptr.i.i.i, align 8
  %tobool.not.i9.i = icmp eq ptr %10, null
  br i1 %tobool.not.i9.i, label %"??1locale@std@@QEAA@XZ.exit20.i", label %if.then.i10.i

if.then.i10.i:                                    ; preds = %ehcleanup.i
  %vtable.i11.i = load ptr, ptr %10, align 8
  %vfn.i12.i = getelementptr inbounds nuw i8, ptr %vtable.i11.i, i64 16
  %11 = load ptr, ptr %vfn.i12.i, align 8
  %call.i13.i = call noundef ptr %11(ptr noundef nonnull align 8 dereferenceable(16) %10) #15 [ "funclet"(token %9) ]
  %isnull.i14.i = icmp eq ptr %call.i13.i, null
  br i1 %isnull.i14.i, label %"??1locale@std@@QEAA@XZ.exit20.i", label %delete.notnull.i15.i

delete.notnull.i15.i:                             ; preds = %if.then.i10.i
  %vtable3.i16.i = load ptr, ptr %call.i13.i, align 8
  %12 = load ptr, ptr %vtable3.i16.i, align 8
  %call5.i17.i = call noundef ptr %12(ptr noundef nonnull align 8 dereferenceable(8) %call.i13.i, i32 noundef 1) #15 [ "funclet"(token %9) ]
  br label %"??1locale@std@@QEAA@XZ.exit20.i"

"??1locale@std@@QEAA@XZ.exit20.i":                ; preds = %delete.notnull.i15.i, %if.then.i10.i, %ehcleanup.i
  call void @llvm.lifetime.end.p0(ptr nonnull %ref.tmp.i) #15
  cleanupret from %9 unwind to caller

"?widen@?$basic_ios@DU?$char_traits@D@std@@@std@@QEBADD@Z.exit": ; preds = %invoke.cont2.i, %if.then.i.i, %delete.notnull.i.i
  call void @llvm.lifetime.end.p0(ptr nonnull %ref.tmp.i) #15
  %call1 = call noundef nonnull align 8 dereferenceable(8) ptr @"?put@?$basic_ostream@DU?$char_traits@D@std@@@std@@QEAAAEAV12@D@Z"(ptr noundef nonnull align 8 dereferenceable(8) %_Ostr, i8 noundef %call.i5.i)
  %call2 = call noundef nonnull align 8 dereferenceable(8) ptr @"?flush@?$basic_ostream@DU?$char_traits@D@std@@@std@@QEAAAEAV12@XZ"(ptr noundef nonnull align 8 dereferenceable(8) %_Ostr)
  ret ptr %_Ostr
}

; Function Attrs: mustprogress uwtable
define linkonce_odr dso_local noundef nonnull align 8 dereferenceable(16) ptr @"??$?5DU?$char_traits@D@std@@V?$allocator@D@1@@std@@YAAEAV?$basic_istream@DU?$char_traits@D@std@@@0@AEAV10@AEAV?$basic_string@DU?$char_traits@D@std@@V?$allocator@D@2@@0@@Z"(ptr noundef nonnull align 8 dereferenceable(16) %_Istr, ptr noundef nonnull align 8 dereferenceable(32) %_Str) local_unnamed_addr #2 comdat personality ptr @__CxxFrameHandler3 {
entry:
  %agg.tmp.i = alloca %"class.std::error_code", align 8
  %tmp.i.i.i = alloca %"class.std::ios_base::failure", align 8
  %ref.tmp.i.i.i = alloca %"class.std::error_code", align 8
  %_Ok = alloca %"class.std::basic_istream<char>::sentry", align 8
  %ref.tmp = alloca %"class.std::locale", align 8
  call void @llvm.lifetime.start.p0(ptr nonnull %_Ok) #15
  store ptr %_Istr, ptr %_Ok, align 8
  %vbtable.i.i = load ptr, ptr %_Istr, align 8
  %0 = getelementptr inbounds nuw i8, ptr %vbtable.i.i, i64 4
  %vbase_offs.i.i = load i32, ptr %0, align 4
  %1 = sext i32 %vbase_offs.i.i to i64
  %add.ptr.i.i = getelementptr inbounds i8, ptr %_Istr, i64 %1
  %_Mystrbuf.i.i.i = getelementptr inbounds nuw i8, ptr %add.ptr.i.i, i64 72
  %2 = load ptr, ptr %_Mystrbuf.i.i.i, align 8
  %tobool.not.i.i = icmp eq ptr %2, null
  br i1 %tobool.not.i.i, label %"??0_Sentry_base@?$basic_istream@DU?$char_traits@D@std@@@std@@QEAA@AEAV12@@Z.exit.i", label %if.then.i.i

if.then.i.i:                                      ; preds = %entry
  %vtable.i.i = load ptr, ptr %2, align 8
  %vfn.i.i = getelementptr inbounds nuw i8, ptr %vtable.i.i, i64 8
  %3 = load ptr, ptr %vfn.i.i, align 8
  tail call void %3(ptr noundef nonnull align 8 dereferenceable(104) %2)
  br label %"??0_Sentry_base@?$basic_istream@DU?$char_traits@D@std@@@std@@QEAA@AEAV12@@Z.exit.i"

"??0_Sentry_base@?$basic_istream@DU?$char_traits@D@std@@@std@@QEAA@AEAV12@@Z.exit.i": ; preds = %if.then.i.i, %entry
  %call2.i = invoke noundef zeroext i1 @"?_Ipfx@?$basic_istream@DU?$char_traits@D@std@@@std@@QEAA_N_N@Z"(ptr noundef nonnull align 8 dereferenceable(16) %_Istr, i1 noundef zeroext false)
          to label %"??0sentry@?$basic_istream@DU?$char_traits@D@std@@@std@@QEAA@AEAV12@_N@Z.exit" unwind label %ehcleanup.i

ehcleanup.i:                                      ; preds = %"??0_Sentry_base@?$basic_istream@DU?$char_traits@D@std@@@std@@QEAA@AEAV12@@Z.exit.i"
  %4 = cleanuppad within none []
  call void @"??1_Sentry_base@?$basic_istream@DU?$char_traits@D@std@@@std@@QEAA@XZ"(ptr noundef nonnull align 8 dereferenceable(16) %_Ok) #15 [ "funclet"(token %4) ]
  cleanupret from %4 unwind to caller

"??0sentry@?$basic_istream@DU?$char_traits@D@std@@@std@@QEAA@AEAV12@_N@Z.exit": ; preds = %"??0_Sentry_base@?$basic_istream@DU?$char_traits@D@std@@@std@@QEAA@AEAV12@@Z.exit.i"
  %_Ok.i = getelementptr inbounds nuw i8, ptr %_Ok, i64 8
  %storedv3.i = zext i1 %call2.i to i8
  store i8 %storedv3.i, ptr %_Ok.i, align 8
  br i1 %call2.i, label %if.then, label %if.end60.thread

if.end60.thread:                                  ; preds = %"??0sentry@?$basic_istream@DU?$char_traits@D@std@@@std@@QEAA@AEAV12@_N@Z.exit"
  %vbtable62151 = load ptr, ptr %_Istr, align 8
  %5 = getelementptr inbounds nuw i8, ptr %vbtable62151, i64 4
  %vbase_offs63152 = load i32, ptr %5, align 4
  %6 = sext i32 %vbase_offs63152 to i64
  %add.ptr64153 = getelementptr inbounds i8, ptr %_Istr, i64 %6
  %_Wide.i138154 = getelementptr inbounds nuw i8, ptr %add.ptr64153, i64 40
  store i64 0, ptr %_Wide.i138154, align 8
  br label %62

if.then:                                          ; preds = %"??0sentry@?$basic_istream@DU?$char_traits@D@std@@@std@@QEAA@AEAV12@_N@Z.exit"
  call void @llvm.lifetime.start.p0(ptr nonnull %ref.tmp) #15
  %vbtable = load ptr, ptr %_Istr, align 8
  %7 = getelementptr inbounds nuw i8, ptr %vbtable, i64 4
  %vbase_offs = load i32, ptr %7, align 4
  %8 = sext i32 %vbase_offs to i64
  %add.ptr = getelementptr inbounds i8, ptr %_Istr, i64 %8
  tail call void @llvm.experimental.noalias.scope.decl(metadata !38)
  %_Ploc.i = getelementptr inbounds nuw i8, ptr %add.ptr, i64 64
  %9 = load ptr, ptr %_Ploc.i, align 8, !noalias !38
  %_Ptr.i.i = getelementptr inbounds nuw i8, ptr %ref.tmp, i64 8
  %_Ptr2.i.i = getelementptr inbounds nuw i8, ptr %9, i64 8
  %10 = load ptr, ptr %_Ptr2.i.i, align 8, !noalias !38
  store ptr %10, ptr %_Ptr.i.i, align 8, !alias.scope !38
  %vtable.i.i97 = load ptr, ptr %10, align 8, !noalias !38
  %vfn.i.i98 = getelementptr inbounds nuw i8, ptr %vtable.i.i97, i64 8
  %11 = load ptr, ptr %vfn.i.i98, align 8, !noalias !38
  tail call void %11(ptr noundef nonnull align 8 dereferenceable(16) %10) #15, !noalias !38
  %call2 = invoke noundef nonnull align 8 dereferenceable(48) ptr @"??$use_facet@V?$ctype@D@std@@@std@@YAAEBV?$ctype@D@0@AEBVlocale@0@@Z"(ptr noundef nonnull align 8 dereferenceable(16) %ref.tmp)
          to label %invoke.cont unwind label %ehcleanup

invoke.cont:                                      ; preds = %if.then
  %12 = load ptr, ptr %_Ptr.i.i, align 8
  %tobool.not.i = icmp eq ptr %12, null
  br i1 %tobool.not.i, label %invoke.cont4, label %if.then.i

if.then.i:                                        ; preds = %invoke.cont
  %vtable.i = load ptr, ptr %12, align 8
  %vfn.i = getelementptr inbounds nuw i8, ptr %vtable.i, i64 16
  %13 = load ptr, ptr %vfn.i, align 8
  %call.i = call noundef ptr %13(ptr noundef nonnull align 8 dereferenceable(16) %12) #15
  %isnull.i = icmp eq ptr %call.i, null
  br i1 %isnull.i, label %invoke.cont4, label %delete.notnull.i

delete.notnull.i:                                 ; preds = %if.then.i
  %vtable3.i = load ptr, ptr %call.i, align 8
  %14 = load ptr, ptr %vtable3.i, align 8
  %call5.i = call noundef ptr %14(ptr noundef nonnull align 8 dereferenceable(8) %call.i, i32 noundef 1) #15
  br label %invoke.cont4

invoke.cont4:                                     ; preds = %delete.notnull.i, %if.then.i, %invoke.cont
  call void @llvm.lifetime.end.p0(ptr nonnull %ref.tmp) #15
  %_Mysize.i.i = getelementptr inbounds nuw i8, ptr %_Str, i64 16
  store i64 0, ptr %_Mysize.i.i, align 8
  %_Myres.i.i.i.i = getelementptr inbounds nuw i8, ptr %_Str, i64 24
  %15 = load i64, ptr %_Myres.i.i.i.i, align 8
  %cmp.i.i.i.i = icmp ugt i64 %15, 15
  %16 = load ptr, ptr %_Str, align 8
  %spec.select.i.i.i = select i1 %cmp.i.i.i.i, ptr %16, ptr %_Str
  store i8 0, ptr %spec.select.i.i.i, align 1
  %vbtable7 = load ptr, ptr %_Istr, align 8
  %17 = getelementptr inbounds nuw i8, ptr %vbtable7, i64 4
  %vbase_offs8 = load i32, ptr %17, align 4
  %18 = sext i32 %vbase_offs8 to i64
  %add.ptr9 = getelementptr inbounds i8, ptr %_Istr, i64 %18
  %_Wide.i = getelementptr inbounds nuw i8, ptr %add.ptr9, i64 40
  %19 = load i64, ptr %_Wide.i, align 8
  %20 = add i64 %19, -1
  %or.cond = icmp ult i64 %20, 9223372036854775806
  %_Size.0 = select i1 %or.cond, i64 %19, i64 9223372036854775807
  %_Mystrbuf.i = getelementptr inbounds nuw i8, ptr %add.ptr9, i64 72
  %21 = load ptr, ptr %_Mystrbuf.i, align 8
  %_IGnext.i.i = getelementptr inbounds nuw i8, ptr %21, i64 56
  %22 = load ptr, ptr %_IGnext.i.i, align 8
  %23 = load ptr, ptr %22, align 8
  %tobool.not.i.i115 = icmp eq ptr %23, null
  br i1 %tobool.not.i.i115, label %cond.false.i, label %"?_Gnavail@?$basic_streambuf@DU?$char_traits@D@std@@@std@@IEBA_JXZ.exit.i"

ehcleanup:                                        ; preds = %if.then
  %24 = cleanuppad within none []
  %25 = load ptr, ptr %_Ptr.i.i, align 8
  %tobool.not.i103 = icmp eq ptr %25, null
  br i1 %tobool.not.i103, label %"??1locale@std@@QEAA@XZ.exit114", label %if.then.i104

if.then.i104:                                     ; preds = %ehcleanup
  %vtable.i105 = load ptr, ptr %25, align 8
  %vfn.i106 = getelementptr inbounds nuw i8, ptr %vtable.i105, i64 16
  %26 = load ptr, ptr %vfn.i106, align 8
  %call.i107 = call noundef ptr %26(ptr noundef nonnull align 8 dereferenceable(16) %25) #15 [ "funclet"(token %24) ]
  %isnull.i108 = icmp eq ptr %call.i107, null
  br i1 %isnull.i108, label %"??1locale@std@@QEAA@XZ.exit114", label %delete.notnull.i109

delete.notnull.i109:                              ; preds = %if.then.i104
  %vtable3.i110 = load ptr, ptr %call.i107, align 8
  %27 = load ptr, ptr %vtable3.i110, align 8
  %call5.i111 = call noundef ptr %27(ptr noundef nonnull align 8 dereferenceable(8) %call.i107, i32 noundef 1) #15 [ "funclet"(token %24) ]
  br label %"??1locale@std@@QEAA@XZ.exit114"

"??1locale@std@@QEAA@XZ.exit114":                 ; preds = %ehcleanup, %if.then.i104, %delete.notnull.i109
  call void @llvm.lifetime.end.p0(ptr nonnull %ref.tmp) #15
  cleanupret from %24 unwind label %ehcleanup74

"?_Gnavail@?$basic_streambuf@DU?$char_traits@D@std@@@std@@IEBA_JXZ.exit.i": ; preds = %invoke.cont4
  %_IGcount.i.i = getelementptr inbounds nuw i8, ptr %21, i64 80
  %28 = load ptr, ptr %_IGcount.i.i, align 8
  %29 = load i32, ptr %28, align 4
  %cmp.i = icmp sgt i32 %29, 0
  br i1 %cmp.i, label %cond.true.i, label %cond.false.i

cond.true.i:                                      ; preds = %"?_Gnavail@?$basic_streambuf@DU?$char_traits@D@std@@@std@@IEBA_JXZ.exit.i"
  %30 = load i8, ptr %23, align 1
  %conv.i.i = zext i8 %30 to i32
  br label %"?sgetc@?$basic_streambuf@DU?$char_traits@D@std@@@std@@QEAAHXZ.exit"

cond.false.i:                                     ; preds = %"?_Gnavail@?$basic_streambuf@DU?$char_traits@D@std@@@std@@IEBA_JXZ.exit.i", %invoke.cont4
  %vtable.i116 = load ptr, ptr %21, align 8
  %vfn.i117 = getelementptr inbounds nuw i8, ptr %vtable.i116, i64 48
  %31 = load ptr, ptr %vfn.i117, align 8
  %call4.i118 = invoke noundef i32 %31(ptr noundef nonnull align 8 dereferenceable(104) %21)
          to label %"?sgetc@?$basic_streambuf@DU?$char_traits@D@std@@@std@@QEAAHXZ.exit" unwind label %catch.dispatch

"?sgetc@?$basic_streambuf@DU?$char_traits@D@std@@@std@@QEAAHXZ.exit": ; preds = %cond.false.i, %cond.true.i
  %cond.i = phi i32 [ %conv.i.i, %cond.true.i ], [ %call4.i118, %cond.false.i ]
  %_Table.i = getelementptr inbounds nuw i8, ptr %call2, i64 24
  br label %for.cond

for.cond:                                         ; preds = %"?sgetc@?$basic_streambuf@DU?$char_traits@D@std@@@std@@QEAAHXZ.exit", %invoke.cont50
  %_Changed.0 = phi i1 [ true, %invoke.cont50 ], [ false, %"?sgetc@?$basic_streambuf@DU?$char_traits@D@std@@@std@@QEAAHXZ.exit" ]
  %_Size.1 = phi i64 [ %dec, %invoke.cont50 ], [ %_Size.0, %"?sgetc@?$basic_streambuf@DU?$char_traits@D@std@@@std@@QEAAHXZ.exit" ]
  %_Meta.0 = phi i32 [ %cond12.i, %invoke.cont50 ], [ %cond.i, %"?sgetc@?$basic_streambuf@DU?$char_traits@D@std@@@std@@QEAAHXZ.exit" ]
  %cmp32.not = icmp eq i64 %_Size.1, 0
  br i1 %cmp32.not, label %if.end60, label %for.body

for.body:                                         ; preds = %for.cond
  %cmp.i119 = icmp eq i32 %_Meta.0, -1
  br i1 %cmp.i119, label %if.end60, label %if.else36

if.else36:                                        ; preds = %for.body
  %conv.i = trunc i32 %_Meta.0 to i8
  %32 = load ptr, ptr %_Table.i, align 8
  %conv.i.mask = and i32 %_Meta.0, 255
  %idxprom.i = zext nneg i32 %conv.i.mask to i64
  %arrayidx.i = getelementptr inbounds nuw i16, ptr %32, i64 %idxprom.i
  %33 = load i16, ptr %arrayidx.i, align 2
  %and3.i = and i16 %33, 72
  %cmp.i120.not = icmp eq i16 %and3.i, 0
  br i1 %cmp.i120.not, label %if.else40, label %if.end60

if.else40:                                        ; preds = %if.else36
  %34 = load i64, ptr %_Mysize.i.i, align 8
  %35 = load i64, ptr %_Myres.i.i.i.i, align 8
  %cmp.i122 = icmp ult i64 %34, %35
  br i1 %cmp.i122, label %if.then.i123, label %if.end.i

if.then.i123:                                     ; preds = %if.else40
  %add.i = add nuw i64 %34, 1
  store i64 %add.i, ptr %_Mysize.i.i, align 8
  %cmp.i.i.i = icmp ugt i64 %35, 15
  %36 = load ptr, ptr %_Str, align 8
  %spec.select.i.i = select i1 %cmp.i.i.i, ptr %36, ptr %_Str
  %arrayidx.i124 = getelementptr inbounds nuw i8, ptr %spec.select.i.i, i64 %34
  store i8 %conv.i, ptr %arrayidx.i124, align 1
  %arrayidx10.i = getelementptr inbounds nuw i8, ptr %spec.select.i.i, i64 %add.i
  store i8 0, ptr %arrayidx10.i, align 1
  br label %invoke.cont42

if.end.i:                                         ; preds = %if.else40
  %call11.i125 = invoke noundef nonnull align 8 dereferenceable(32) ptr @"??$_Reallocate_grow_by@V<lambda_1>@?0??push_back@?$basic_string@DU?$char_traits@D@std@@V?$allocator@D@2@@std@@QEAAXD@Z@D@?$basic_string@DU?$char_traits@D@std@@V?$allocator@D@2@@std@@AEAAAEAV01@_KV<lambda_1>@?0??push_back@01@QEAAXD@Z@D@Z"(ptr noundef nonnull align 8 dereferenceable(32) %_Str, i64 noundef 1, i8 undef, i8 noundef %conv.i)
          to label %invoke.cont42 unwind label %catch.dispatch

invoke.cont42:                                    ; preds = %if.then.i123, %if.end.i
  %vbtable46 = load ptr, ptr %_Istr, align 8
  %37 = getelementptr inbounds nuw i8, ptr %vbtable46, i64 4
  %vbase_offs47 = load i32, ptr %37, align 4
  %38 = sext i32 %vbase_offs47 to i64
  %add.ptr48 = getelementptr inbounds i8, ptr %_Istr, i64 %38
  %_Mystrbuf.i126 = getelementptr inbounds nuw i8, ptr %add.ptr48, i64 72
  %39 = load ptr, ptr %_Mystrbuf.i126, align 8
  %_IGnext.i.i127 = getelementptr inbounds nuw i8, ptr %39, i64 56
  %40 = load ptr, ptr %_IGnext.i.i127, align 8
  %41 = load ptr, ptr %40, align 8
  %tobool.not.i.i128 = icmp eq ptr %41, null
  br i1 %tobool.not.i.i128, label %"?sbumpc@?$basic_streambuf@DU?$char_traits@D@std@@@std@@QEAAHXZ.exit.i", label %"?_Gnavail@?$basic_streambuf@DU?$char_traits@D@std@@@std@@IEBA_JXZ.exit.i129"

"?_Gnavail@?$basic_streambuf@DU?$char_traits@D@std@@@std@@IEBA_JXZ.exit.i129": ; preds = %invoke.cont42
  %_IGcount.i.i130 = getelementptr inbounds nuw i8, ptr %39, i64 80
  %42 = load ptr, ptr %_IGcount.i.i130, align 8
  %43 = load i32, ptr %42, align 4
  %cmp.i131 = icmp sgt i32 %43, 1
  br i1 %cmp.i131, label %cond.true.i134, label %"?_Gnavail@?$basic_streambuf@DU?$char_traits@D@std@@@std@@IEBA_JXZ.exit.i.i"

cond.true.i134:                                   ; preds = %"?_Gnavail@?$basic_streambuf@DU?$char_traits@D@std@@@std@@IEBA_JXZ.exit.i129"
  %dec.i.i = add nsw i32 %43, -1
  store i32 %dec.i.i, ptr %42, align 4
  %44 = load ptr, ptr %_IGnext.i.i127, align 8
  %45 = load ptr, ptr %44, align 8
  %incdec.ptr.i.i = getelementptr inbounds nuw i8, ptr %45, i64 1
  store ptr %incdec.ptr.i.i, ptr %44, align 8
  %46 = load i8, ptr %incdec.ptr.i.i, align 1
  %conv.i.i135 = zext i8 %46 to i32
  br label %invoke.cont50

"?_Gnavail@?$basic_streambuf@DU?$char_traits@D@std@@@std@@IEBA_JXZ.exit.i.i": ; preds = %"?_Gnavail@?$basic_streambuf@DU?$char_traits@D@std@@@std@@IEBA_JXZ.exit.i129"
  %cmp.i.i = icmp eq i32 %43, 1
  br i1 %cmp.i.i, label %"?sbumpc@?$basic_streambuf@DU?$char_traits@D@std@@@std@@QEAAHXZ.exit.thread.i", label %"?sbumpc@?$basic_streambuf@DU?$char_traits@D@std@@@std@@QEAAHXZ.exit.i"

"?sbumpc@?$basic_streambuf@DU?$char_traits@D@std@@@std@@QEAAHXZ.exit.thread.i": ; preds = %"?_Gnavail@?$basic_streambuf@DU?$char_traits@D@std@@@std@@IEBA_JXZ.exit.i.i"
  store i32 0, ptr %42, align 4
  %47 = load ptr, ptr %_IGnext.i.i127, align 8
  %48 = load ptr, ptr %47, align 8
  %incdec.ptr.i.i.i = getelementptr inbounds nuw i8, ptr %48, i64 1
  store ptr %incdec.ptr.i.i.i, ptr %47, align 8
  br label %cond.false9.i

"?sbumpc@?$basic_streambuf@DU?$char_traits@D@std@@@std@@QEAAHXZ.exit.i": ; preds = %"?_Gnavail@?$basic_streambuf@DU?$char_traits@D@std@@@std@@IEBA_JXZ.exit.i.i", %invoke.cont42
  %vtable.i.i132 = load ptr, ptr %39, align 8
  %vfn.i.i133 = getelementptr inbounds nuw i8, ptr %vtable.i.i132, i64 56
  %49 = load ptr, ptr %vfn.i.i133, align 8
  %call4.i.i136 = invoke noundef i32 %49(ptr noundef nonnull align 8 dereferenceable(104) %39)
          to label %call4.i.i.noexc unwind label %catch.dispatch

call4.i.i.noexc:                                  ; preds = %"?sbumpc@?$basic_streambuf@DU?$char_traits@D@std@@@std@@QEAAHXZ.exit.i"
  %cmp.i17.i = icmp eq i32 %call4.i.i136, -1
  br i1 %cmp.i17.i, label %invoke.cont50, label %cond.false9.i

cond.false9.i:                                    ; preds = %call4.i.i.noexc, %"?sbumpc@?$basic_streambuf@DU?$char_traits@D@std@@@std@@QEAAHXZ.exit.thread.i"
  %50 = load ptr, ptr %_IGnext.i.i127, align 8
  %51 = load ptr, ptr %50, align 8
  %tobool.not.i.i19.i = icmp eq ptr %51, null
  br i1 %tobool.not.i.i19.i, label %cond.false.i23.i, label %"?_Gnavail@?$basic_streambuf@DU?$char_traits@D@std@@@std@@IEBA_JXZ.exit.i20.i"

"?_Gnavail@?$basic_streambuf@DU?$char_traits@D@std@@@std@@IEBA_JXZ.exit.i20.i": ; preds = %cond.false9.i
  %_IGcount.i.i21.i = getelementptr inbounds nuw i8, ptr %39, i64 80
  %52 = load ptr, ptr %_IGcount.i.i21.i, align 8
  %53 = load i32, ptr %52, align 4
  %cmp.i22.i = icmp sgt i32 %53, 0
  br i1 %cmp.i22.i, label %cond.true.i28.i, label %cond.false.i23.i

cond.true.i28.i:                                  ; preds = %"?_Gnavail@?$basic_streambuf@DU?$char_traits@D@std@@@std@@IEBA_JXZ.exit.i20.i"
  %54 = load i8, ptr %51, align 1
  %conv.i.i29.i = zext i8 %54 to i32
  br label %invoke.cont50

cond.false.i23.i:                                 ; preds = %"?_Gnavail@?$basic_streambuf@DU?$char_traits@D@std@@@std@@IEBA_JXZ.exit.i20.i", %cond.false9.i
  %vtable.i24.i = load ptr, ptr %39, align 8
  %vfn.i25.i = getelementptr inbounds nuw i8, ptr %vtable.i24.i, i64 48
  %55 = load ptr, ptr %vfn.i25.i, align 8
  %call4.i26.i137 = invoke noundef i32 %55(ptr noundef nonnull align 8 dereferenceable(104) %39)
          to label %invoke.cont50 unwind label %catch.dispatch

invoke.cont50:                                    ; preds = %cond.true.i28.i, %call4.i.i.noexc, %cond.true.i134, %cond.false.i23.i
  %cond12.i = phi i32 [ %conv.i.i135, %cond.true.i134 ], [ -1, %call4.i.i.noexc ], [ %conv.i.i29.i, %cond.true.i28.i ], [ %call4.i26.i137, %cond.false.i23.i ]
  %dec = add i64 %_Size.1, -1
  br label %for.cond, !llvm.loop !41

catch.dispatch:                                   ; preds = %cond.false.i23.i, %"?sbumpc@?$basic_streambuf@DU?$char_traits@D@std@@@std@@QEAAHXZ.exit.i", %if.end.i, %cond.false.i
  %_Changed.1 = phi i1 [ true, %cond.false.i23.i ], [ %_Changed.0, %if.end.i ], [ false, %cond.false.i ], [ true, %"?sbumpc@?$basic_streambuf@DU?$char_traits@D@std@@@std@@QEAAHXZ.exit.i" ]
  %56 = catchswitch within none [label %catch] unwind label %ehcleanup74

catch:                                            ; preds = %catch.dispatch
  %57 = catchpad within %56 [ptr null, i32 64, ptr null]
  %vbtable55 = load ptr, ptr %_Istr, align 8
  %58 = getelementptr inbounds nuw i8, ptr %vbtable55, i64 4
  %vbase_offs56 = load i32, ptr %58, align 4
  %59 = sext i32 %vbase_offs56 to i64
  %add.ptr57 = getelementptr inbounds i8, ptr %_Istr, i64 %59
  invoke void @"?setstate@?$basic_ios@DU?$char_traits@D@std@@@std@@QEAAXH_N@Z"(ptr noundef nonnull align 8 dereferenceable(96) %add.ptr57, i32 noundef 4, i1 noundef zeroext true) [ "funclet"(token %57) ]
          to label %invoke.cont58 unwind label %ehcleanup74

invoke.cont58:                                    ; preds = %catch
  catchret from %57 to label %if.end60

if.end60:                                         ; preds = %for.body, %if.else36, %for.cond, %invoke.cont58
  %_Changed.3 = phi i1 [ %_Changed.1, %invoke.cont58 ], [ %_Changed.0, %for.cond ], [ %_Changed.0, %if.else36 ], [ %_Changed.0, %for.body ]
  %_State.2 = phi i32 [ 0, %invoke.cont58 ], [ 1, %for.body ], [ 0, %if.else36 ], [ 0, %for.cond ]
  %vbtable62 = load ptr, ptr %_Istr, align 8
  %60 = getelementptr inbounds nuw i8, ptr %vbtable62, i64 4
  %vbase_offs63 = load i32, ptr %60, align 4
  %61 = sext i32 %vbase_offs63 to i64
  %add.ptr64 = getelementptr inbounds i8, ptr %_Istr, i64 %61
  %_Wide.i138 = getelementptr inbounds nuw i8, ptr %add.ptr64, i64 40
  store i64 0, ptr %_Wide.i138, align 8
  %or67 = or disjoint i32 %_State.2, 2
  %spec.select = select i1 %_Changed.3, i32 %_State.2, i32 %or67
  br label %62

62:                                               ; preds = %if.end60, %if.end60.thread
  %63 = phi i32 [ 2, %if.end60.thread ], [ %spec.select, %if.end60 ]
  %vbtable70 = load ptr, ptr %_Istr, align 8
  %64 = getelementptr inbounds nuw i8, ptr %vbtable70, i64 4
  %vbase_offs71 = load i32, ptr %64, align 4
  %65 = sext i32 %vbase_offs71 to i64
  %add.ptr72 = getelementptr inbounds i8, ptr %_Istr, i64 %65
  %_Mystate.i.i = getelementptr inbounds nuw i8, ptr %add.ptr72, i64 16
  %66 = load i32, ptr %_Mystate.i.i, align 8
  %or.i = or i32 %66, %63
  %_Mystrbuf.i.i = getelementptr inbounds nuw i8, ptr %add.ptr72, i64 72
  %67 = load ptr, ptr %_Mystrbuf.i.i, align 8
  %tobool.not.i.i139 = icmp eq ptr %67, null
  %cond.i.i = select i1 %tobool.not.i.i139, i32 4, i32 0
  call void @llvm.lifetime.start.p0(ptr nonnull %tmp.i.i.i)
  %_State.masked.i.i = and i32 %or.i, 23
  %and.i.i.i = or i32 %cond.i.i, %_State.masked.i.i
  store i32 %and.i.i.i, ptr %_Mystate.i.i, align 8
  %_Except.i.i.i = getelementptr inbounds nuw i8, ptr %add.ptr72, i64 20
  %68 = load i32, ptr %_Except.i.i.i, align 4
  %and2.i.i.i = and i32 %68, %and.i.i.i
  %tobool.not.i.i.i = icmp eq i32 %and2.i.i.i, 0
  br i1 %tobool.not.i.i.i, label %invoke.cont73, label %if.then.i.i.i

if.then.i.i.i:                                    ; preds = %62
  %and4.i.i.i = and i32 %and2.i.i.i, 4
  %tobool5.not.i.i.i = icmp eq i32 %and4.i.i.i, 0
  %and7.i.i.i = and i32 %and2.i.i.i, 2
  %tobool8.not.i.i.i = icmp eq i32 %and7.i.i.i, 0
  %"??_C@_0BF@OOHOMBOF@ios_base?3?3eofbit?5set?$AA@.??_C@_0BG@FMKFHCIL@ios_base?3?3failbit?5set?$AA@.i.i.i" = select i1 %tobool8.not.i.i.i, ptr @"??_C@_0BF@OOHOMBOF@ios_base?3?3eofbit?5set?$AA@", ptr @"??_C@_0BG@FMKFHCIL@ios_base?3?3failbit?5set?$AA@"
  %_Msg.0.i.i.i = select i1 %tobool5.not.i.i.i, ptr %"??_C@_0BF@OOHOMBOF@ios_base?3?3eofbit?5set?$AA@.??_C@_0BG@FMKFHCIL@ios_base?3?3failbit?5set?$AA@.i.i.i", ptr @"??_C@_0BF@PHHKMMFD@ios_base?3?3badbit?5set?$AA@"
  call void @llvm.lifetime.start.p0(ptr nonnull %ref.tmp.i.i.i) #15
  call void @"?make_error_code@std@@YA?AVerror_code@1@W4io_errc@1@@Z"(ptr dead_on_unwind nonnull writable sret(%"class.std::error_code") align 8 %ref.tmp.i.i.i, i32 noundef 1) #15
  call void @llvm.lifetime.start.p0(ptr nonnull %agg.tmp.i)
  call void @llvm.memcpy.p0.p0.i64(ptr noundef nonnull align 8 dereferenceable(16) %agg.tmp.i, ptr noundef nonnull align 8 dereferenceable(16) %ref.tmp.i.i.i, i64 16, i1 false)
  %call.i147148 = invoke noundef ptr @"??0system_error@std@@QEAA@Verror_code@1@PEBD@Z"(ptr noundef nonnull align 8 dereferenceable(40) %tmp.i.i.i, ptr dead_on_return noundef nonnull %agg.tmp.i, ptr noundef nonnull %_Msg.0.i.i.i)
          to label %call.i.i.i.noexc unwind label %ehcleanup74

call.i.i.i.noexc:                                 ; preds = %if.then.i.i.i
  store ptr @"??_7failure@ios_base@std@@6B@", ptr %tmp.i.i.i, align 8
  call void @llvm.lifetime.end.p0(ptr nonnull %agg.tmp.i)
  invoke void @_CxxThrowException(ptr nonnull %tmp.i.i.i, ptr nonnull @"_TI5?AVfailure@ios_base@std@@") #30
          to label %.noexc unwind label %ehcleanup74

.noexc:                                           ; preds = %call.i.i.i.noexc
  unreachable

invoke.cont73:                                    ; preds = %62
  call void @llvm.lifetime.end.p0(ptr nonnull %tmp.i.i.i)
  %69 = load ptr, ptr %_Ok, align 8, !nonnull !33, !align !34
  %vbtable.i = load ptr, ptr %69, align 8
  %70 = getelementptr inbounds nuw i8, ptr %vbtable.i, i64 4
  %vbase_offs.i = load i32, ptr %70, align 4
  %71 = sext i32 %vbase_offs.i to i64
  %add.ptr.i = getelementptr inbounds i8, ptr %69, i64 %71
  %_Mystrbuf.i.i141 = getelementptr inbounds nuw i8, ptr %add.ptr.i, i64 72
  %72 = load ptr, ptr %_Mystrbuf.i.i141, align 8
  %tobool.not.i142 = icmp eq ptr %72, null
  br i1 %tobool.not.i142, label %"??1_Sentry_base@?$basic_istream@DU?$char_traits@D@std@@@std@@QEAA@XZ.exit", label %if.then.i143

if.then.i143:                                     ; preds = %invoke.cont73
  %vtable.i144 = load ptr, ptr %72, align 8
  %vfn.i145 = getelementptr inbounds nuw i8, ptr %vtable.i144, i64 16
  %73 = load ptr, ptr %vfn.i145, align 8
  invoke void %73(ptr noundef nonnull align 8 dereferenceable(104) %72)
          to label %"??1_Sentry_base@?$basic_istream@DU?$char_traits@D@std@@@std@@QEAA@XZ.exit" unwind label %terminate.i

terminate.i:                                      ; preds = %if.then.i143
  %74 = cleanuppad within none []
  call void @__std_terminate() #32 [ "funclet"(token %74) ]
  unreachable

"??1_Sentry_base@?$basic_istream@DU?$char_traits@D@std@@@std@@QEAA@XZ.exit": ; preds = %invoke.cont73, %if.then.i143
  call void @llvm.lifetime.end.p0(ptr nonnull %_Ok) #15
  ret ptr %_Istr

ehcleanup74:                                      ; preds = %if.then.i.i.i, %call.i.i.i.noexc, %"??1locale@std@@QEAA@XZ.exit114", %catch.dispatch, %catch
  %75 = cleanuppad within none []
  call void @"??1_Sentry_base@?$basic_istream@DU?$char_traits@D@std@@@std@@QEAA@XZ"(ptr noundef nonnull align 8 dereferenceable(16) %_Ok) #15 [ "funclet"(token %75) ]
  call void @llvm.lifetime.end.p0(ptr nonnull %_Ok) #15
  cleanupret from %75 unwind to caller
}

; Function Attrs: mustprogress uwtable
define linkonce_odr dso_local noundef nonnull align 8 dereferenceable(8) ptr @"??6?$basic_ostream@DU?$char_traits@D@std@@@std@@QEAAAEAV01@M@Z"(ptr noundef nonnull align 8 dereferenceable(8) %this, float noundef %_Val) local_unnamed_addr #2 comdat align 2 personality ptr @__CxxFrameHandler3 {
entry:
  %agg.tmp.i77 = alloca %"class.std::error_code", align 8
  %tmp.i.i.i = alloca %"class.std::ios_base::failure", align 8
  %ref.tmp.i.i.i = alloca %"class.std::error_code", align 8
  %agg.tmp.i = alloca %"class.std::ostreambuf_iterator", align 8
  %_Ok = alloca %"class.std::basic_ostream<char>::sentry", align 8
  %ref.tmp = alloca %"class.std::locale", align 8
  %ref.tmp5 = alloca %"class.std::ostreambuf_iterator", align 8
  call void @llvm.lifetime.start.p0(ptr nonnull %_Ok) #15
  store ptr %this, ptr %_Ok, align 8
  %vbtable.i.i = load ptr, ptr %this, align 8
  %0 = getelementptr inbounds nuw i8, ptr %vbtable.i.i, i64 4
  %vbase_offs.i.i = load i32, ptr %0, align 4
  %1 = sext i32 %vbase_offs.i.i to i64
  %add.ptr.i.i = getelementptr inbounds i8, ptr %this, i64 %1
  %_Mystrbuf.i.i.i = getelementptr inbounds nuw i8, ptr %add.ptr.i.i, i64 72
  %2 = load ptr, ptr %_Mystrbuf.i.i.i, align 8
  %tobool.not.i.i = icmp eq ptr %2, null
  br i1 %tobool.not.i.i, label %"??0_Sentry_base@?$basic_ostream@DU?$char_traits@D@std@@@std@@QEAA@AEAV12@@Z.exit.i", label %if.then.i.i

if.then.i.i:                                      ; preds = %entry
  %vtable.i.i = load ptr, ptr %2, align 8
  %vfn.i.i = getelementptr inbounds nuw i8, ptr %vtable.i.i, i64 8
  %3 = load ptr, ptr %vfn.i.i, align 8
  tail call void %3(ptr noundef nonnull align 8 dereferenceable(104) %2)
  %vbtable.pre.i = load ptr, ptr %this, align 8
  %.phi.trans.insert.i = getelementptr inbounds nuw i8, ptr %vbtable.pre.i, i64 4
  %vbase_offs.pre.i = load i32, ptr %.phi.trans.insert.i, align 4
  %.pre.i = sext i32 %vbase_offs.pre.i to i64
  br label %"??0_Sentry_base@?$basic_ostream@DU?$char_traits@D@std@@@std@@QEAA@AEAV12@@Z.exit.i"

"??0_Sentry_base@?$basic_ostream@DU?$char_traits@D@std@@@std@@QEAA@AEAV12@@Z.exit.i": ; preds = %if.then.i.i, %entry
  %vbtable82 = phi ptr [ %vbtable.i.i, %entry ], [ %vbtable.pre.i, %if.then.i.i ]
  %.pre-phi.i = phi i64 [ %1, %entry ], [ %.pre.i, %if.then.i.i ]
  %add.ptr.i = getelementptr inbounds i8, ptr %this, i64 %.pre-phi.i
  %_Mystate.i.i.i = getelementptr inbounds nuw i8, ptr %add.ptr.i, i64 16
  %4 = load i32, ptr %_Mystate.i.i.i, align 8
  %cmp.i.i = icmp eq i32 %4, 0
  br i1 %cmp.i.i, label %if.end.i, label %"??0sentry@?$basic_ostream@DU?$char_traits@D@std@@@std@@QEAA@AEAV12@@Z.exit.thread90"

"??0sentry@?$basic_ostream@DU?$char_traits@D@std@@@std@@QEAA@AEAV12@@Z.exit.thread90": ; preds = %"??0_Sentry_base@?$basic_ostream@DU?$char_traits@D@std@@@std@@QEAA@AEAV12@@Z.exit.i"
  %_Ok.i = getelementptr inbounds nuw i8, ptr %_Ok, i64 8
  store i8 0, ptr %_Ok.i, align 8
  br label %if.end31

if.end.i:                                         ; preds = %"??0_Sentry_base@?$basic_ostream@DU?$char_traits@D@std@@@std@@QEAA@AEAV12@@Z.exit.i"
  %_Tiestr.i.i = getelementptr inbounds nuw i8, ptr %add.ptr.i, i64 80
  %5 = load ptr, ptr %_Tiestr.i.i, align 8
  %tobool.not.i = icmp eq ptr %5, null
  %cmp.i = icmp eq ptr %5, %this
  %or.cond.i = or i1 %tobool.not.i, %cmp.i
  br i1 %or.cond.i, label %"??0sentry@?$basic_ostream@DU?$char_traits@D@std@@@std@@QEAA@AEAV12@@Z.exit.thread", label %if.end10.i

"??0sentry@?$basic_ostream@DU?$char_traits@D@std@@@std@@QEAA@AEAV12@@Z.exit.thread": ; preds = %if.end.i
  %_Ok9.i = getelementptr inbounds nuw i8, ptr %_Ok, i64 8
  store i8 1, ptr %_Ok9.i, align 8
  br label %if.then

if.end10.i:                                       ; preds = %if.end.i
  %call11.i = invoke noundef nonnull align 8 dereferenceable(8) ptr @"?flush@?$basic_ostream@DU?$char_traits@D@std@@@std@@QEAAAEAV12@XZ"(ptr noundef nonnull align 8 dereferenceable(8) %5)
          to label %"??0sentry@?$basic_ostream@DU?$char_traits@D@std@@@std@@QEAA@AEAV12@@Z.exit" unwind label %ehcleanup.i

ehcleanup.i:                                      ; preds = %if.end10.i
  %6 = cleanuppad within none []
  call void @"??1_Sentry_base@?$basic_ostream@DU?$char_traits@D@std@@@std@@QEAA@XZ"(ptr noundef nonnull align 8 dereferenceable(16) %_Ok) #15 [ "funclet"(token %6) ]
  cleanupret from %6 unwind to caller

"??0sentry@?$basic_ostream@DU?$char_traits@D@std@@@std@@QEAA@AEAV12@@Z.exit": ; preds = %if.end10.i
  %vbtable13.i = load ptr, ptr %this, align 8
  %7 = getelementptr inbounds nuw i8, ptr %vbtable13.i, i64 4
  %vbase_offs14.i = load i32, ptr %7, align 4
  %8 = sext i32 %vbase_offs14.i to i64
  %add.ptr15.i = getelementptr inbounds i8, ptr %this, i64 %8
  %_Mystate.i.i25.i = getelementptr inbounds nuw i8, ptr %add.ptr15.i, i64 16
  %9 = load i32, ptr %_Mystate.i.i25.i, align 8
  %cmp.i26.i = icmp eq i32 %9, 0
  %_Ok17.i = getelementptr inbounds nuw i8, ptr %_Ok, i64 8
  %storedv.i = zext i1 %cmp.i26.i to i8
  store i8 %storedv.i, ptr %_Ok17.i, align 8
  br i1 %cmp.i26.i, label %if.then, label %if.end31

if.then:                                          ; preds = %"??0sentry@?$basic_ostream@DU?$char_traits@D@std@@@std@@QEAA@AEAV12@@Z.exit.thread", %"??0sentry@?$basic_ostream@DU?$char_traits@D@std@@@std@@QEAA@AEAV12@@Z.exit"
  %vbtable89 = phi ptr [ %vbtable82, %"??0sentry@?$basic_ostream@DU?$char_traits@D@std@@@std@@QEAA@AEAV12@@Z.exit.thread" ], [ %vbtable13.i, %"??0sentry@?$basic_ostream@DU?$char_traits@D@std@@@std@@QEAA@AEAV12@@Z.exit" ]
  call void @llvm.lifetime.start.p0(ptr nonnull %ref.tmp) #15
  %10 = getelementptr inbounds nuw i8, ptr %vbtable89, i64 4
  %vbase_offs = load i32, ptr %10, align 4
  %11 = sext i32 %vbase_offs to i64
  %add.ptr = getelementptr inbounds i8, ptr %this, i64 %11
  tail call void @llvm.experimental.noalias.scope.decl(metadata !42)
  %_Ploc.i = getelementptr inbounds nuw i8, ptr %add.ptr, i64 64
  %12 = load ptr, ptr %_Ploc.i, align 8, !noalias !42
  %_Ptr.i.i = getelementptr inbounds nuw i8, ptr %ref.tmp, i64 8
  %_Ptr2.i.i = getelementptr inbounds nuw i8, ptr %12, i64 8
  %13 = load ptr, ptr %_Ptr2.i.i, align 8, !noalias !42
  store ptr %13, ptr %_Ptr.i.i, align 8, !alias.scope !42
  %vtable.i.i42 = load ptr, ptr %13, align 8, !noalias !42
  %vfn.i.i43 = getelementptr inbounds nuw i8, ptr %vtable.i.i42, i64 8
  %14 = load ptr, ptr %vfn.i.i43, align 8, !noalias !42
  tail call void %14(ptr noundef nonnull align 8 dereferenceable(16) %13) #15, !noalias !42
  %call3 = invoke noundef nonnull align 8 dereferenceable(16) ptr @"??$use_facet@V?$num_put@DV?$ostreambuf_iterator@DU?$char_traits@D@std@@@std@@@std@@@std@@YAAEBV?$num_put@DV?$ostreambuf_iterator@DU?$char_traits@D@std@@@std@@@0@AEBVlocale@0@@Z"(ptr noundef nonnull align 8 dereferenceable(16) %ref.tmp)
          to label %invoke.cont unwind label %ehcleanup

invoke.cont:                                      ; preds = %if.then
  %15 = load ptr, ptr %_Ptr.i.i, align 8
  %tobool.not.i44 = icmp eq ptr %15, null
  br i1 %tobool.not.i44, label %"??1locale@std@@QEAA@XZ.exit", label %if.then.i45

if.then.i45:                                      ; preds = %invoke.cont
  %vtable.i = load ptr, ptr %15, align 8
  %vfn.i = getelementptr inbounds nuw i8, ptr %vtable.i, i64 16
  %16 = load ptr, ptr %vfn.i, align 8
  %call.i = call noundef ptr %16(ptr noundef nonnull align 8 dereferenceable(16) %15) #15
  %isnull.i = icmp eq ptr %call.i, null
  br i1 %isnull.i, label %"??1locale@std@@QEAA@XZ.exit", label %delete.notnull.i

delete.notnull.i:                                 ; preds = %if.then.i45
  %vtable3.i = load ptr, ptr %call.i, align 8
  %17 = load ptr, ptr %vtable3.i, align 8
  %call5.i = call noundef ptr %17(ptr noundef nonnull align 8 dereferenceable(8) %call.i, i32 noundef 1) #15
  br label %"??1locale@std@@QEAA@XZ.exit"

"??1locale@std@@QEAA@XZ.exit":                    ; preds = %invoke.cont, %if.then.i45, %delete.notnull.i
  call void @llvm.lifetime.end.p0(ptr nonnull %ref.tmp) #15
  call void @llvm.lifetime.start.p0(ptr nonnull %ref.tmp5) #15
  %conv = fpext float %_Val to double
  %vbtable7 = load ptr, ptr %this, align 8
  %18 = getelementptr inbounds nuw i8, ptr %vbtable7, i64 4
  %vbase_offs8 = load i32, ptr %18, align 4
  %19 = sext i32 %vbase_offs8 to i64
  %add.ptr9 = getelementptr inbounds i8, ptr %this, i64 %19
  %_Fillch.i = getelementptr inbounds nuw i8, ptr %add.ptr9, i64 88
  %20 = load i8, ptr %_Fillch.i, align 8
  %_Mystrbuf.i = getelementptr inbounds nuw i8, ptr %add.ptr9, i64 72
  %21 = load ptr, ptr %_Mystrbuf.i, align 8
  call void @llvm.lifetime.start.p0(ptr nonnull %agg.tmp.i)
  store i8 0, ptr %agg.tmp.i, align 8, !noalias !45
  %agg.tmp.sroa.280.0.agg.tmp.i.sroa_idx = getelementptr inbounds nuw i8, ptr %agg.tmp.i, i64 8
  store ptr %21, ptr %agg.tmp.sroa.280.0.agg.tmp.i.sroa_idx, align 8, !noalias !45
  %vtable.i47 = load ptr, ptr %call3, align 8, !noalias !45
  %vfn.i48 = getelementptr inbounds nuw i8, ptr %vtable.i47, i64 40
  %22 = load ptr, ptr %vfn.i48, align 8, !noalias !45
  invoke void %22(ptr noundef nonnull align 8 dereferenceable(16) %call3, ptr dead_on_unwind nonnull writable sret(%"class.std::ostreambuf_iterator") align 8 %ref.tmp5, ptr dead_on_return noundef nonnull %agg.tmp.i, ptr noundef nonnull align 8 dereferenceable(72) %add.ptr9, i8 noundef %20, double noundef %conv)
          to label %invoke.cont21 unwind label %catch.dispatch

invoke.cont21:                                    ; preds = %"??1locale@std@@QEAA@XZ.exit"
  call void @llvm.lifetime.end.p0(ptr nonnull %agg.tmp.i)
  %23 = load i8, ptr %ref.tmp5, align 8, !range !32, !noundef !33
  call void @llvm.lifetime.end.p0(ptr nonnull %ref.tmp5) #15
  %24 = shl nuw nsw i8 %23, 2
  %spec.select = zext nneg i8 %24 to i32
  br label %if.end31

ehcleanup:                                        ; preds = %if.then
  %25 = cleanuppad within none []
  %26 = load ptr, ptr %_Ptr.i.i, align 8
  %tobool.not.i51 = icmp eq ptr %26, null
  br i1 %tobool.not.i51, label %"??1locale@std@@QEAA@XZ.exit63", label %if.then.i52

if.then.i52:                                      ; preds = %ehcleanup
  %vtable.i53 = load ptr, ptr %26, align 8
  %vfn.i54 = getelementptr inbounds nuw i8, ptr %vtable.i53, i64 16
  %27 = load ptr, ptr %vfn.i54, align 8
  %call.i55 = call noundef ptr %27(ptr noundef nonnull align 8 dereferenceable(16) %26) #15 [ "funclet"(token %25) ]
  %isnull.i56 = icmp eq ptr %call.i55, null
  br i1 %isnull.i56, label %"??1locale@std@@QEAA@XZ.exit63", label %delete.notnull.i57

delete.notnull.i57:                               ; preds = %if.then.i52
  %vtable3.i58 = load ptr, ptr %call.i55, align 8
  %28 = load ptr, ptr %vtable3.i58, align 8
  %call5.i59 = call noundef ptr %28(ptr noundef nonnull align 8 dereferenceable(8) %call.i55, i32 noundef 1) #15 [ "funclet"(token %25) ]
  br label %"??1locale@std@@QEAA@XZ.exit63"

"??1locale@std@@QEAA@XZ.exit63":                  ; preds = %ehcleanup, %if.then.i52, %delete.notnull.i57
  call void @llvm.lifetime.end.p0(ptr nonnull %ref.tmp) #15
  cleanupret from %25 unwind label %ehcleanup37

catch.dispatch:                                   ; preds = %"??1locale@std@@QEAA@XZ.exit"
  %29 = catchswitch within none [label %catch] unwind label %ehcleanup37

catch:                                            ; preds = %catch.dispatch
  %30 = catchpad within %29 [ptr null, i32 64, ptr null]
  %vbtable26 = load ptr, ptr %this, align 8
  %31 = getelementptr inbounds nuw i8, ptr %vbtable26, i64 4
  %vbase_offs27 = load i32, ptr %31, align 4
  %32 = sext i32 %vbase_offs27 to i64
  %add.ptr28 = getelementptr inbounds i8, ptr %this, i64 %32
  invoke void @"?setstate@?$basic_ios@DU?$char_traits@D@std@@@std@@QEAAXH_N@Z"(ptr noundef nonnull align 8 dereferenceable(96) %add.ptr28, i32 noundef 4, i1 noundef zeroext true) [ "funclet"(token %30) ]
          to label %invoke.cont29 unwind label %ehcleanup37

invoke.cont29:                                    ; preds = %catch
  catchret from %30 to label %if.end31

if.end31:                                         ; preds = %"??0sentry@?$basic_ostream@DU?$char_traits@D@std@@@std@@QEAA@AEAV12@@Z.exit.thread90", %invoke.cont21, %invoke.cont29, %"??0sentry@?$basic_ostream@DU?$char_traits@D@std@@@std@@QEAA@AEAV12@@Z.exit"
  %_State.1 = phi i32 [ 0, %"??0sentry@?$basic_ostream@DU?$char_traits@D@std@@@std@@QEAA@AEAV12@@Z.exit" ], [ 0, %invoke.cont29 ], [ %spec.select, %invoke.cont21 ], [ 0, %"??0sentry@?$basic_ostream@DU?$char_traits@D@std@@@std@@QEAA@AEAV12@@Z.exit.thread90" ]
  %vbtable33 = load ptr, ptr %this, align 8
  %33 = getelementptr inbounds nuw i8, ptr %vbtable33, i64 4
  %vbase_offs34 = load i32, ptr %33, align 4
  %34 = sext i32 %vbase_offs34 to i64
  %add.ptr35 = getelementptr inbounds i8, ptr %this, i64 %34
  %_Mystate.i.i = getelementptr inbounds nuw i8, ptr %add.ptr35, i64 16
  %35 = load i32, ptr %_Mystate.i.i, align 8
  %or.i = or i32 %35, %_State.1
  %_Mystrbuf.i.i = getelementptr inbounds nuw i8, ptr %add.ptr35, i64 72
  %36 = load ptr, ptr %_Mystrbuf.i.i, align 8
  %tobool.not.i.i64 = icmp eq ptr %36, null
  %cond.i.i = select i1 %tobool.not.i.i64, i32 4, i32 0
  call void @llvm.lifetime.start.p0(ptr nonnull %tmp.i.i.i)
  %_State.masked.i.i = and i32 %or.i, 23
  %and.i.i.i = or i32 %cond.i.i, %_State.masked.i.i
  store i32 %and.i.i.i, ptr %_Mystate.i.i, align 8
  %_Except.i.i.i = getelementptr inbounds nuw i8, ptr %add.ptr35, i64 20
  %37 = load i32, ptr %_Except.i.i.i, align 4
  %and2.i.i.i = and i32 %37, %and.i.i.i
  %tobool.not.i.i.i = icmp eq i32 %and2.i.i.i, 0
  br i1 %tobool.not.i.i.i, label %invoke.cont36, label %if.then.i.i.i

if.then.i.i.i:                                    ; preds = %if.end31
  %and4.i.i.i = and i32 %and2.i.i.i, 4
  %tobool5.not.i.i.i = icmp eq i32 %and4.i.i.i, 0
  %and7.i.i.i = and i32 %and2.i.i.i, 2
  %tobool8.not.i.i.i = icmp eq i32 %and7.i.i.i, 0
  %"??_C@_0BF@OOHOMBOF@ios_base?3?3eofbit?5set?$AA@.??_C@_0BG@FMKFHCIL@ios_base?3?3failbit?5set?$AA@.i.i.i" = select i1 %tobool8.not.i.i.i, ptr @"??_C@_0BF@OOHOMBOF@ios_base?3?3eofbit?5set?$AA@", ptr @"??_C@_0BG@FMKFHCIL@ios_base?3?3failbit?5set?$AA@"
  %_Msg.0.i.i.i = select i1 %tobool5.not.i.i.i, ptr %"??_C@_0BF@OOHOMBOF@ios_base?3?3eofbit?5set?$AA@.??_C@_0BG@FMKFHCIL@ios_base?3?3failbit?5set?$AA@.i.i.i", ptr @"??_C@_0BF@PHHKMMFD@ios_base?3?3badbit?5set?$AA@"
  call void @llvm.lifetime.start.p0(ptr nonnull %ref.tmp.i.i.i) #15
  call void @"?make_error_code@std@@YA?AVerror_code@1@W4io_errc@1@@Z"(ptr dead_on_unwind nonnull writable sret(%"class.std::error_code") align 8 %ref.tmp.i.i.i, i32 noundef 1) #15
  call void @llvm.lifetime.start.p0(ptr nonnull %agg.tmp.i77)
  call void @llvm.memcpy.p0.p0.i64(ptr noundef nonnull align 8 dereferenceable(16) %agg.tmp.i77, ptr noundef nonnull align 8 dereferenceable(16) %ref.tmp.i.i.i, i64 16, i1 false)
  %call.i7879 = invoke noundef ptr @"??0system_error@std@@QEAA@Verror_code@1@PEBD@Z"(ptr noundef nonnull align 8 dereferenceable(40) %tmp.i.i.i, ptr dead_on_return noundef nonnull %agg.tmp.i77, ptr noundef nonnull %_Msg.0.i.i.i)
          to label %call.i.i.i.noexc unwind label %ehcleanup37

call.i.i.i.noexc:                                 ; preds = %if.then.i.i.i
  store ptr @"??_7failure@ios_base@std@@6B@", ptr %tmp.i.i.i, align 8
  call void @llvm.lifetime.end.p0(ptr nonnull %agg.tmp.i77)
  invoke void @_CxxThrowException(ptr nonnull %tmp.i.i.i, ptr nonnull @"_TI5?AVfailure@ios_base@std@@") #30
          to label %.noexc unwind label %ehcleanup37

.noexc:                                           ; preds = %call.i.i.i.noexc
  unreachable

invoke.cont36:                                    ; preds = %if.end31
  call void @llvm.lifetime.end.p0(ptr nonnull %tmp.i.i.i)
  %call.i66 = call noundef zeroext i1 @"?uncaught_exception@std@@YA_NXZ"() #15
  br i1 %call.i66, label %if.end.i68, label %if.then.i67

if.then.i67:                                      ; preds = %invoke.cont36
  %38 = load ptr, ptr %_Ok, align 8, !nonnull !33, !align !34
  call void @"?_Osfx@?$basic_ostream@DU?$char_traits@D@std@@@std@@QEAAXXZ"(ptr noundef nonnull align 8 dereferenceable(8) %38) #15
  br label %if.end.i68

if.end.i68:                                       ; preds = %if.then.i67, %invoke.cont36
  %39 = load ptr, ptr %_Ok, align 8, !nonnull !33, !align !34
  %vbtable.i.i69 = load ptr, ptr %39, align 8
  %40 = getelementptr inbounds nuw i8, ptr %vbtable.i.i69, i64 4
  %vbase_offs.i.i70 = load i32, ptr %40, align 4
  %41 = sext i32 %vbase_offs.i.i70 to i64
  %add.ptr.i.i71 = getelementptr inbounds i8, ptr %39, i64 %41
  %_Mystrbuf.i.i.i72 = getelementptr inbounds nuw i8, ptr %add.ptr.i.i71, i64 72
  %42 = load ptr, ptr %_Mystrbuf.i.i.i72, align 8
  %tobool.not.i.i73 = icmp eq ptr %42, null
  br i1 %tobool.not.i.i73, label %"??1sentry@?$basic_ostream@DU?$char_traits@D@std@@@std@@QEAA@XZ.exit", label %if.then.i.i74

if.then.i.i74:                                    ; preds = %if.end.i68
  %vtable.i.i75 = load ptr, ptr %42, align 8
  %vfn.i.i76 = getelementptr inbounds nuw i8, ptr %vtable.i.i75, i64 16
  %43 = load ptr, ptr %vfn.i.i76, align 8
  invoke void %43(ptr noundef nonnull align 8 dereferenceable(104) %42)
          to label %"??1sentry@?$basic_ostream@DU?$char_traits@D@std@@@std@@QEAA@XZ.exit" unwind label %terminate.i.i

terminate.i.i:                                    ; preds = %if.then.i.i74
  %44 = cleanuppad within none []
  call void @__std_terminate() #32 [ "funclet"(token %44) ]
  unreachable

"??1sentry@?$basic_ostream@DU?$char_traits@D@std@@@std@@QEAA@XZ.exit": ; preds = %if.end.i68, %if.then.i.i74
  call void @llvm.lifetime.end.p0(ptr nonnull %_Ok) #15
  ret ptr %this

ehcleanup37:                                      ; preds = %if.then.i.i.i, %call.i.i.i.noexc, %"??1locale@std@@QEAA@XZ.exit63", %catch.dispatch, %catch
  %45 = cleanuppad within none []
  call void @"??1sentry@?$basic_ostream@DU?$char_traits@D@std@@@std@@QEAA@XZ"(ptr noundef nonnull align 8 dereferenceable(16) %_Ok) #15 [ "funclet"(token %45) ]
  call void @llvm.lifetime.end.p0(ptr nonnull %_Ok) #15
  cleanupret from %45 unwind to caller
}

; Function Attrs: inlinehint mustprogress nounwind uwtable
define linkonce_odr dso_local void @"??1Student@@QEAA@XZ"(ptr noundef nonnull align 8 dereferenceable(48) %this) unnamed_addr #3 comdat align 2 personality ptr @__CxxFrameHandler3 {
entry:
  %name = getelementptr inbounds nuw i8, ptr %this, i64 8
  %_Myres.i.i.i = getelementptr inbounds nuw i8, ptr %this, i64 32
  %0 = load i64, ptr %_Myres.i.i.i, align 8
  %cmp.i.i.i = icmp ugt i64 %0, 15
  br i1 %cmp.i.i.i, label %if.then.i.i, label %"??1?$basic_string@DU?$char_traits@D@std@@V?$allocator@D@2@@std@@QEAA@XZ.exit"

if.then.i.i:                                      ; preds = %entry
  %1 = load ptr, ptr %name, align 8
  %add.i.i.i = add i64 %0, 1
  %cmp.i.i.i.i.i = icmp ugt i64 %add.i.i.i, 4095
  br i1 %cmp.i.i.i.i.i, label %if.then.i.i.i.i.i, label %"?_Deallocate_for_capacity@?$basic_string@DU?$char_traits@D@std@@V?$allocator@D@2@@std@@CAXAEAV?$allocator@D@2@QEAD_K@Z.exit.i.i"

if.then.i.i.i.i.i:                                ; preds = %if.then.i.i
  %arrayidx.i.i.i.i.i.i = getelementptr inbounds i8, ptr %1, i64 -8
  %2 = load i64, ptr %arrayidx.i.i.i.i.i.i, align 8
  %3 = ptrtoint ptr %1 to i64
  %reass.sub.i.i.i.i.i.i = add i64 %3, -8
  %4 = sub i64 %reass.sub.i.i.i.i.i.i, %2
  %or.cond.i.i.i.i.i.i = icmp ult i64 %4, 32
  br i1 %or.cond.i.i.i.i.i.i, label %"?_Adjust_manually_vector_aligned@std@@YAXAEAPEAXAEA_K@Z.exit.i.i.i.i.i", label %if.then.i.i.i.i.i.i

if.then.i.i.i.i.i.i:                              ; preds = %if.then.i.i.i.i.i
  tail call void @llvm.trap()
  unreachable

"?_Adjust_manually_vector_aligned@std@@YAXAEAPEAXAEA_K@Z.exit.i.i.i.i.i": ; preds = %if.then.i.i.i.i.i
  %add.i.i.i.i.i.i = add i64 %0, 40
  %5 = inttoptr i64 %2 to ptr
  br label %"?_Deallocate_for_capacity@?$basic_string@DU?$char_traits@D@std@@V?$allocator@D@2@@std@@CAXAEAV?$allocator@D@2@QEAD_K@Z.exit.i.i"

"?_Deallocate_for_capacity@?$basic_string@DU?$char_traits@D@std@@V?$allocator@D@2@@std@@CAXAEAV?$allocator@D@2@QEAD_K@Z.exit.i.i": ; preds = %"?_Adjust_manually_vector_aligned@std@@YAXAEAPEAXAEA_K@Z.exit.i.i.i.i.i", %if.then.i.i
  %_Bytes.addr.0.i.i.i.i.i = phi i64 [ %add.i.i.i.i.i.i, %"?_Adjust_manually_vector_aligned@std@@YAXAEAPEAXAEA_K@Z.exit.i.i.i.i.i" ], [ %add.i.i.i, %if.then.i.i ]
  %_Ptr.addr.0.i.i.i.i.i = phi ptr [ %5, %"?_Adjust_manually_vector_aligned@std@@YAXAEAPEAXAEA_K@Z.exit.i.i.i.i.i" ], [ %1, %if.then.i.i ]
  tail call void @"??3@YAXPEAX_K@Z"(ptr noundef %_Ptr.addr.0.i.i.i.i.i, i64 noundef %_Bytes.addr.0.i.i.i.i.i) #15
  br label %"??1?$basic_string@DU?$char_traits@D@std@@V?$allocator@D@2@@std@@QEAA@XZ.exit"

"??1?$basic_string@DU?$char_traits@D@std@@V?$allocator@D@2@@std@@QEAA@XZ.exit": ; preds = %entry, %"?_Deallocate_for_capacity@?$basic_string@DU?$char_traits@D@std@@V?$allocator@D@2@@std@@CAXAEAV?$allocator@D@2@QEAD_K@Z.exit.i.i"
  %_Mysize.i.i = getelementptr inbounds nuw i8, ptr %this, i64 24
  store i64 0, ptr %_Mysize.i.i, align 8
  store i64 15, ptr %_Myres.i.i.i, align 8
  store i8 0, ptr %name, align 8
  ret void
}

; Function Attrs: inlinehint mustprogress nounwind uwtable
define linkonce_odr dso_local void @"??1?$vector@UStudent@@V?$allocator@UStudent@@@std@@@std@@QEAA@XZ"(ptr noundef nonnull align 8 dereferenceable(24) %this) unnamed_addr #3 comdat align 2 personality ptr @__CxxFrameHandler3 {
entry:
  %0 = load ptr, ptr %this, align 8
  %tobool.not.i = icmp eq ptr %0, null
  br i1 %tobool.not.i, label %"?_Tidy@?$vector@UStudent@@V?$allocator@UStudent@@@std@@@std@@AEAAXXZ.exit", label %if.then.i

if.then.i:                                        ; preds = %entry
  %_Myend4.i = getelementptr inbounds nuw i8, ptr %this, i64 16
  %_Mylast3.i = getelementptr inbounds nuw i8, ptr %this, i64 8
  %1 = load ptr, ptr %_Mylast3.i, align 8
  %cmp.not3.i.i = icmp eq ptr %0, %1
  br i1 %cmp.not3.i.i, label %"??$_Destroy_range@V?$allocator@UStudent@@@std@@@std@@YAXPEAUStudent@@QEAU1@AEAV?$allocator@UStudent@@@0@@Z.exit.i", label %for.body.i.i

for.body.i.i:                                     ; preds = %if.then.i, %"??$destroy@UStudent@@@?$_Default_allocator_traits@V?$allocator@UStudent@@@std@@@std@@SAXAEAV?$allocator@UStudent@@@1@QEAUStudent@@@Z.exit.i.i"
  %_First.addr.04.i.i = phi ptr [ %incdec.ptr.i.i, %"??$destroy@UStudent@@@?$_Default_allocator_traits@V?$allocator@UStudent@@@std@@@std@@SAXAEAV?$allocator@UStudent@@@1@QEAUStudent@@@Z.exit.i.i" ], [ %0, %if.then.i ]
  %name.i.i.i.i = getelementptr inbounds nuw i8, ptr %_First.addr.04.i.i, i64 8
  %_Myres.i.i.i.i.i.i.i = getelementptr inbounds nuw i8, ptr %_First.addr.04.i.i, i64 32
  %2 = load i64, ptr %_Myres.i.i.i.i.i.i.i, align 8
  %cmp.i.i.i.i.i.i.i = icmp ugt i64 %2, 15
  br i1 %cmp.i.i.i.i.i.i.i, label %if.then.i.i.i.i.i.i, label %"??$destroy@UStudent@@@?$_Default_allocator_traits@V?$allocator@UStudent@@@std@@@std@@SAXAEAV?$allocator@UStudent@@@1@QEAUStudent@@@Z.exit.i.i"

if.then.i.i.i.i.i.i:                              ; preds = %for.body.i.i
  %3 = load ptr, ptr %name.i.i.i.i, align 8
  %add.i.i.i.i.i.i.i = add i64 %2, 1
  %cmp.i.i.i.i.i.i.i.i.i = icmp ugt i64 %add.i.i.i.i.i.i.i, 4095
  br i1 %cmp.i.i.i.i.i.i.i.i.i, label %if.then.i.i.i.i.i.i.i.i.i, label %"?_Deallocate_for_capacity@?$basic_string@DU?$char_traits@D@std@@V?$allocator@D@2@@std@@CAXAEAV?$allocator@D@2@QEAD_K@Z.exit.i.i.i.i.i.i"

if.then.i.i.i.i.i.i.i.i.i:                        ; preds = %if.then.i.i.i.i.i.i
  %arrayidx.i.i.i.i.i.i.i.i.i.i = getelementptr inbounds i8, ptr %3, i64 -8
  %4 = load i64, ptr %arrayidx.i.i.i.i.i.i.i.i.i.i, align 8
  %5 = ptrtoint ptr %3 to i64
  %reass.sub.i.i.i.i.i.i.i.i.i.i = add i64 %5, -8
  %6 = sub i64 %reass.sub.i.i.i.i.i.i.i.i.i.i, %4
  %or.cond.i.i.i.i.i.i.i.i.i.i = icmp ult i64 %6, 32
  br i1 %or.cond.i.i.i.i.i.i.i.i.i.i, label %"?_Adjust_manually_vector_aligned@std@@YAXAEAPEAXAEA_K@Z.exit.i.i.i.i.i.i.i.i.i", label %if.then.i.i.i.i.i.i.i.i.i.i

if.then.i.i.i.i.i.i.i.i.i.i:                      ; preds = %if.then.i.i.i.i.i.i.i.i.i
  tail call void @llvm.trap()
  unreachable

"?_Adjust_manually_vector_aligned@std@@YAXAEAPEAXAEA_K@Z.exit.i.i.i.i.i.i.i.i.i": ; preds = %if.then.i.i.i.i.i.i.i.i.i
  %add.i.i.i.i.i.i.i.i.i.i = add i64 %2, 40
  %7 = inttoptr i64 %4 to ptr
  br label %"?_Deallocate_for_capacity@?$basic_string@DU?$char_traits@D@std@@V?$allocator@D@2@@std@@CAXAEAV?$allocator@D@2@QEAD_K@Z.exit.i.i.i.i.i.i"

"?_Deallocate_for_capacity@?$basic_string@DU?$char_traits@D@std@@V?$allocator@D@2@@std@@CAXAEAV?$allocator@D@2@QEAD_K@Z.exit.i.i.i.i.i.i": ; preds = %"?_Adjust_manually_vector_aligned@std@@YAXAEAPEAXAEA_K@Z.exit.i.i.i.i.i.i.i.i.i", %if.then.i.i.i.i.i.i
  %_Bytes.addr.0.i.i.i.i.i.i.i.i.i = phi i64 [ %add.i.i.i.i.i.i.i.i.i.i, %"?_Adjust_manually_vector_aligned@std@@YAXAEAPEAXAEA_K@Z.exit.i.i.i.i.i.i.i.i.i" ], [ %add.i.i.i.i.i.i.i, %if.then.i.i.i.i.i.i ]
  %_Ptr.addr.0.i.i.i.i.i.i.i.i.i = phi ptr [ %7, %"?_Adjust_manually_vector_aligned@std@@YAXAEAPEAXAEA_K@Z.exit.i.i.i.i.i.i.i.i.i" ], [ %3, %if.then.i.i.i.i.i.i ]
  tail call void @"??3@YAXPEAX_K@Z"(ptr noundef %_Ptr.addr.0.i.i.i.i.i.i.i.i.i, i64 noundef %_Bytes.addr.0.i.i.i.i.i.i.i.i.i) #15
  br label %"??$destroy@UStudent@@@?$_Default_allocator_traits@V?$allocator@UStudent@@@std@@@std@@SAXAEAV?$allocator@UStudent@@@1@QEAUStudent@@@Z.exit.i.i"

"??$destroy@UStudent@@@?$_Default_allocator_traits@V?$allocator@UStudent@@@std@@@std@@SAXAEAV?$allocator@UStudent@@@1@QEAUStudent@@@Z.exit.i.i": ; preds = %"?_Deallocate_for_capacity@?$basic_string@DU?$char_traits@D@std@@V?$allocator@D@2@@std@@CAXAEAV?$allocator@D@2@QEAD_K@Z.exit.i.i.i.i.i.i", %for.body.i.i
  %_Mysize.i.i.i.i.i.i = getelementptr inbounds nuw i8, ptr %_First.addr.04.i.i, i64 24
  store i64 0, ptr %_Mysize.i.i.i.i.i.i, align 8
  store i64 15, ptr %_Myres.i.i.i.i.i.i.i, align 8
  store i8 0, ptr %name.i.i.i.i, align 8
  %incdec.ptr.i.i = getelementptr inbounds nuw i8, ptr %_First.addr.04.i.i, i64 48
  %cmp.not.i.i = icmp eq ptr %incdec.ptr.i.i, %1
  br i1 %cmp.not.i.i, label %"??$_Destroy_range@V?$allocator@UStudent@@@std@@@std@@YAXPEAUStudent@@QEAU1@AEAV?$allocator@UStudent@@@0@@Z.exit.loopexit.i", label %for.body.i.i, !llvm.loop !25

"??$_Destroy_range@V?$allocator@UStudent@@@std@@@std@@YAXPEAUStudent@@QEAU1@AEAV?$allocator@UStudent@@@0@@Z.exit.loopexit.i": ; preds = %"??$destroy@UStudent@@@?$_Default_allocator_traits@V?$allocator@UStudent@@@std@@@std@@SAXAEAV?$allocator@UStudent@@@1@QEAUStudent@@@Z.exit.i.i"
  %.pre.i = load ptr, ptr %this, align 8
  br label %"??$_Destroy_range@V?$allocator@UStudent@@@std@@@std@@YAXPEAUStudent@@QEAU1@AEAV?$allocator@UStudent@@@0@@Z.exit.i"

"??$_Destroy_range@V?$allocator@UStudent@@@std@@@std@@YAXPEAUStudent@@QEAU1@AEAV?$allocator@UStudent@@@0@@Z.exit.i": ; preds = %"??$_Destroy_range@V?$allocator@UStudent@@@std@@@std@@YAXPEAUStudent@@QEAU1@AEAV?$allocator@UStudent@@@0@@Z.exit.loopexit.i", %if.then.i
  %8 = phi ptr [ %.pre.i, %"??$_Destroy_range@V?$allocator@UStudent@@@std@@@std@@YAXPEAUStudent@@QEAU1@AEAV?$allocator@UStudent@@@0@@Z.exit.loopexit.i" ], [ %0, %if.then.i ]
  %9 = load ptr, ptr %_Myend4.i, align 8
  %sub.ptr.lhs.cast.i = ptrtoint ptr %9 to i64
  %sub.ptr.rhs.cast.i = ptrtoint ptr %8 to i64
  %sub.ptr.sub.i = sub i64 %sub.ptr.lhs.cast.i, %sub.ptr.rhs.cast.i
  %cmp.i.i.i = icmp ugt i64 %sub.ptr.sub.i, 4095
  br i1 %cmp.i.i.i, label %if.then.i.i.i, label %"?deallocate@?$allocator@UStudent@@@std@@QEAAXQEAUStudent@@_K@Z.exit.i"

if.then.i.i.i:                                    ; preds = %"??$_Destroy_range@V?$allocator@UStudent@@@std@@@std@@YAXPEAUStudent@@QEAU1@AEAV?$allocator@UStudent@@@0@@Z.exit.i"
  %arrayidx.i.i.i.i = getelementptr inbounds i8, ptr %8, i64 -8
  %10 = load i64, ptr %arrayidx.i.i.i.i, align 8
  %reass.sub.i.i.i.i = add i64 %sub.ptr.rhs.cast.i, -8
  %11 = sub i64 %reass.sub.i.i.i.i, %10
  %or.cond.i.i.i.i = icmp ult i64 %11, 32
  br i1 %or.cond.i.i.i.i, label %"?_Adjust_manually_vector_aligned@std@@YAXAEAPEAXAEA_K@Z.exit.i.i.i", label %if.then.i.i.i.i

if.then.i.i.i.i:                                  ; preds = %if.then.i.i.i
  tail call void @llvm.trap()
  unreachable

"?_Adjust_manually_vector_aligned@std@@YAXAEAPEAXAEA_K@Z.exit.i.i.i": ; preds = %if.then.i.i.i
  %add.i.i.i.i = add i64 %sub.ptr.sub.i, 39
  %12 = inttoptr i64 %10 to ptr
  br label %"?deallocate@?$allocator@UStudent@@@std@@QEAAXQEAUStudent@@_K@Z.exit.i"

"?deallocate@?$allocator@UStudent@@@std@@QEAAXQEAUStudent@@_K@Z.exit.i": ; preds = %"?_Adjust_manually_vector_aligned@std@@YAXAEAPEAXAEA_K@Z.exit.i.i.i", %"??$_Destroy_range@V?$allocator@UStudent@@@std@@@std@@YAXPEAUStudent@@QEAU1@AEAV?$allocator@UStudent@@@0@@Z.exit.i"
  %_Bytes.addr.0.i.i.i = phi i64 [ %add.i.i.i.i, %"?_Adjust_manually_vector_aligned@std@@YAXAEAPEAXAEA_K@Z.exit.i.i.i" ], [ %sub.ptr.sub.i, %"??$_Destroy_range@V?$allocator@UStudent@@@std@@@std@@YAXPEAUStudent@@QEAU1@AEAV?$allocator@UStudent@@@0@@Z.exit.i" ]
  %_Ptr.addr.0.i.i.i = phi ptr [ %12, %"?_Adjust_manually_vector_aligned@std@@YAXAEAPEAXAEA_K@Z.exit.i.i.i" ], [ %8, %"??$_Destroy_range@V?$allocator@UStudent@@@std@@@std@@YAXPEAUStudent@@QEAU1@AEAV?$allocator@UStudent@@@0@@Z.exit.i" ]
  tail call void @"??3@YAXPEAX_K@Z"(ptr noundef %_Ptr.addr.0.i.i.i, i64 noundef %_Bytes.addr.0.i.i.i) #15
  tail call void @llvm.memset.p0.i64(ptr noundef nonnull align 8 dereferenceable(24) %this, i8 0, i64 24, i1 false)
  br label %"?_Tidy@?$vector@UStudent@@V?$allocator@UStudent@@@std@@@std@@AEAAXXZ.exit"

"?_Tidy@?$vector@UStudent@@V?$allocator@UStudent@@@std@@@std@@AEAAXXZ.exit": ; preds = %entry, %"?deallocate@?$allocator@UStudent@@@std@@QEAAXQEAUStudent@@_K@Z.exit.i"
  ret void
}

; Function Attrs: uwtable
define linkonce_odr dso_local void @"??__E?id@?$num_get@DV?$istreambuf_iterator@DU?$char_traits@D@std@@@std@@@std@@2V0locale@2@A@@YAXXZ"() #4 comdat {
entry:
  store i64 0, ptr @"?id@?$num_get@DV?$istreambuf_iterator@DU?$char_traits@D@std@@@std@@@std@@2V0locale@2@A", align 8
  ret void
}

; Function Attrs: uwtable
define linkonce_odr dso_local void @"??__E?id@?$numpunct@D@std@@2V0locale@2@A@@YAXXZ"() #4 comdat {
entry:
  store i64 0, ptr @"?id@?$numpunct@D@std@@2V0locale@2@A", align 8
  ret void
}

; Function Attrs: uwtable
define linkonce_odr dso_local void @"??__E?id@?$num_put@DV?$ostreambuf_iterator@DU?$char_traits@D@std@@@std@@@std@@2V0locale@2@A@@YAXXZ"() #4 comdat {
entry:
  store i64 0, ptr @"?id@?$num_put@DV?$ostreambuf_iterator@DU?$char_traits@D@std@@@std@@@std@@2V0locale@2@A", align 8
  ret void
}

; Function Attrs: mustprogress nocallback nofree nounwind willreturn memory(argmem: write)
declare void @llvm.memset.p0.i64(ptr writeonly captures(none), i8, i64, i1 immarg) #5

; Function Attrs: inlinehint mustprogress noreturn uwtable
define linkonce_odr dso_local void @"?_Xlen_string@std@@YAXXZ"() local_unnamed_addr #6 comdat {
entry:
  tail call void @"?_Xlength_error@std@@YAXPEBD@Z"(ptr noundef nonnull @"??_C@_0BA@JFNIOLAK@string?5too?5long?$AA@") #30
  unreachable
}

; Function Attrs: noreturn
declare dso_local void @"?_Xlength_error@std@@YAXPEBD@Z"(ptr noundef) local_unnamed_addr #7

; Function Attrs: mustprogress nocallback nofree nounwind willreturn memory(argmem: readwrite)
declare void @llvm.memcpy.p0.p0.i64(ptr noalias writeonly captures(none), ptr noalias readonly captures(none), i64, i1 immarg) #8

; Function Attrs: inlinehint mustprogress noreturn uwtable
define linkonce_odr dso_local void @"?_Throw_bad_array_new_length@std@@YAXXZ"() local_unnamed_addr #6 comdat {
entry:
  %tmp = alloca %"class.std::bad_array_new_length", align 8
  %_Data.i.i.i = getelementptr inbounds nuw i8, ptr %tmp, i64 8
  %0 = getelementptr inbounds nuw i8, ptr %tmp, i64 16
  store i64 0, ptr %0, align 8
  store ptr @"??_C@_0BF@KINCDENJ@bad?5array?5new?5length?$AA@", ptr %_Data.i.i.i, align 8
  store ptr @"??_7bad_array_new_length@std@@6B@", ptr %tmp, align 8
  call void @_CxxThrowException(ptr nonnull %tmp, ptr nonnull @"_TI3?AVbad_array_new_length@std@@") #30
  unreachable
}

; Function Attrs: cold noreturn nounwind memory(inaccessiblemem: write)
declare void @llvm.trap() #9

; Function Attrs: inlinehint mustprogress nounwind uwtable
define linkonce_odr dso_local noundef ptr @"??0bad_array_new_length@std@@QEAA@AEBV01@@Z"(ptr noundef nonnull returned align 8 dereferenceable(24) %this, ptr noundef nonnull align 8 dereferenceable(24) %0) unnamed_addr #3 comdat align 2 personality ptr @__CxxFrameHandler3 {
entry:
  store ptr @"??_7exception@std@@6B@", ptr %this, align 8
  %_Data.i.i = getelementptr inbounds nuw i8, ptr %this, i64 8
  tail call void @llvm.memset.p0.i64(ptr noundef nonnull align 8 dereferenceable(16) %_Data.i.i, i8 0, i64 16, i1 false)
  %_Data3.i.i = getelementptr inbounds nuw i8, ptr %0, i64 8
  invoke void @__std_exception_copy(ptr noundef nonnull %_Data3.i.i, ptr noundef nonnull %_Data.i.i)
          to label %"??0bad_alloc@std@@QEAA@AEBV01@@Z.exit" unwind label %terminate.i.i

terminate.i.i:                                    ; preds = %entry
  %1 = cleanuppad within none []
  call void @__std_terminate() #32 [ "funclet"(token %1) ]
  unreachable

"??0bad_alloc@std@@QEAA@AEBV01@@Z.exit":          ; preds = %entry
  store ptr @"??_7bad_array_new_length@std@@6B@", ptr %this, align 8
  ret ptr %this
}

; Function Attrs: inlinehint mustprogress nounwind uwtable
define linkonce_odr dso_local noundef ptr @"??0bad_alloc@std@@QEAA@AEBV01@@Z"(ptr noundef nonnull returned align 8 dereferenceable(24) %this, ptr noundef nonnull align 8 dereferenceable(24) %0) unnamed_addr #3 comdat align 2 personality ptr @__CxxFrameHandler3 {
entry:
  store ptr @"??_7exception@std@@6B@", ptr %this, align 8
  %_Data.i = getelementptr inbounds nuw i8, ptr %this, i64 8
  tail call void @llvm.memset.p0.i64(ptr noundef nonnull align 8 dereferenceable(16) %_Data.i, i8 0, i64 16, i1 false)
  %_Data3.i = getelementptr inbounds nuw i8, ptr %0, i64 8
  invoke void @__std_exception_copy(ptr noundef nonnull %_Data3.i, ptr noundef nonnull %_Data.i)
          to label %"??0exception@std@@QEAA@AEBV01@@Z.exit" unwind label %terminate.i

terminate.i:                                      ; preds = %entry
  %1 = cleanuppad within none []
  call void @__std_terminate() #32 [ "funclet"(token %1) ]
  unreachable

"??0exception@std@@QEAA@AEBV01@@Z.exit":          ; preds = %entry
  store ptr @"??_7bad_alloc@std@@6B@", ptr %this, align 8
  ret ptr %this
}

; Function Attrs: mustprogress nounwind uwtable
define linkonce_odr dso_local noundef ptr @"??0exception@std@@QEAA@AEBV01@@Z"(ptr noundef nonnull returned align 8 dereferenceable(24) %this, ptr noundef nonnull align 8 dereferenceable(24) %_Other) unnamed_addr #10 comdat align 2 personality ptr @__CxxFrameHandler3 {
entry:
  store ptr @"??_7exception@std@@6B@", ptr %this, align 8
  %_Data = getelementptr inbounds nuw i8, ptr %this, i64 8
  tail call void @llvm.memset.p0.i64(ptr noundef nonnull align 8 dereferenceable(16) %_Data, i8 0, i64 16, i1 false)
  %_Data3 = getelementptr inbounds nuw i8, ptr %_Other, i64 8
  invoke void @__std_exception_copy(ptr noundef nonnull %_Data3, ptr noundef nonnull %_Data)
          to label %invoke.cont unwind label %terminate

invoke.cont:                                      ; preds = %entry
  ret ptr %this

terminate:                                        ; preds = %entry
  %0 = cleanuppad within none []
  call void @__std_terminate() #32 [ "funclet"(token %0) ]
  unreachable
}

declare dso_local void @_CxxThrowException(ptr, ptr) local_unnamed_addr

; Function Attrs: mustprogress nounwind uwtable
define linkonce_odr dso_local noundef ptr @"?what@exception@std@@UEBAPEBDXZ"(ptr noundef nonnull align 8 dereferenceable(24) %this) unnamed_addr #10 comdat align 2 {
entry:
  %_Data = getelementptr inbounds nuw i8, ptr %this, i64 8
  %0 = load ptr, ptr %_Data, align 8
  %tobool.not = icmp eq ptr %0, null
  %spec.select = select i1 %tobool.not, ptr @"??_C@_0BC@EOODALEL@Unknown?5exception?$AA@", ptr %0
  ret ptr %spec.select
}

; Function Attrs: mustprogress nounwind uwtable
define linkonce_odr dso_local noundef ptr @"??_Gexception@std@@UEAAPEAXI@Z"(ptr noundef nonnull align 8 dereferenceable(24) %this, i32 noundef %should_call_delete) unnamed_addr #10 comdat align 2 personality ptr @__CxxFrameHandler3 {
entry:
  store ptr @"??_7exception@std@@6B@", ptr %this, align 8
  %_Data.i = getelementptr inbounds nuw i8, ptr %this, i64 8
  invoke void @__std_exception_destroy(ptr noundef nonnull %_Data.i)
          to label %"??1exception@std@@UEAA@XZ.exit" unwind label %terminate.i

terminate.i:                                      ; preds = %entry
  %0 = cleanuppad within none []
  call void @__std_terminate() #32 [ "funclet"(token %0) ]
  unreachable

"??1exception@std@@UEAA@XZ.exit":                 ; preds = %entry
  %1 = and i32 %should_call_delete, 1
  %2 = icmp eq i32 %1, 0
  br i1 %2, label %dtor.continue, label %dtor.call_delete

dtor.call_delete:                                 ; preds = %"??1exception@std@@UEAA@XZ.exit"
  tail call void @"??3@YAXPEAX_K@Z"(ptr noundef nonnull %this, i64 noundef 24) #33
  br label %dtor.continue

dtor.continue:                                    ; preds = %dtor.call_delete, %"??1exception@std@@UEAA@XZ.exit"
  ret ptr %this
}

; Function Attrs: nobuiltin nounwind
declare dso_local void @"??3@YAXPEAX_K@Z"(ptr noundef, i64 noundef) local_unnamed_addr #11

declare dso_local void @__std_exception_destroy(ptr noundef) local_unnamed_addr #12

declare dso_local void @__std_terminate() local_unnamed_addr

; Function Attrs: inlinehint mustprogress nounwind uwtable
define linkonce_odr dso_local noundef ptr @"??_Gbad_alloc@std@@UEAAPEAXI@Z"(ptr noundef nonnull align 8 dereferenceable(24) %this, i32 noundef %should_call_delete) unnamed_addr #3 comdat align 2 personality ptr @__CxxFrameHandler3 {
entry:
  store ptr @"??_7exception@std@@6B@", ptr %this, align 8
  %_Data.i = getelementptr inbounds nuw i8, ptr %this, i64 8
  invoke void @__std_exception_destroy(ptr noundef nonnull %_Data.i)
          to label %"??1exception@std@@UEAA@XZ.exit" unwind label %terminate.i

terminate.i:                                      ; preds = %entry
  %0 = cleanuppad within none []
  call void @__std_terminate() #32 [ "funclet"(token %0) ]
  unreachable

"??1exception@std@@UEAA@XZ.exit":                 ; preds = %entry
  %1 = and i32 %should_call_delete, 1
  %2 = icmp eq i32 %1, 0
  br i1 %2, label %dtor.continue, label %dtor.call_delete

dtor.call_delete:                                 ; preds = %"??1exception@std@@UEAA@XZ.exit"
  tail call void @"??3@YAXPEAX_K@Z"(ptr noundef nonnull %this, i64 noundef 24) #33
  br label %dtor.continue

dtor.continue:                                    ; preds = %dtor.call_delete, %"??1exception@std@@UEAA@XZ.exit"
  ret ptr %this
}

; Function Attrs: inlinehint mustprogress nounwind uwtable
define linkonce_odr dso_local noundef ptr @"??_Gbad_array_new_length@std@@UEAAPEAXI@Z"(ptr noundef nonnull align 8 dereferenceable(24) %this, i32 noundef %should_call_delete) unnamed_addr #3 comdat align 2 personality ptr @__CxxFrameHandler3 {
entry:
  store ptr @"??_7exception@std@@6B@", ptr %this, align 8
  %_Data.i = getelementptr inbounds nuw i8, ptr %this, i64 8
  invoke void @__std_exception_destroy(ptr noundef nonnull %_Data.i)
          to label %"??1exception@std@@UEAA@XZ.exit" unwind label %terminate.i

terminate.i:                                      ; preds = %entry
  %0 = cleanuppad within none []
  call void @__std_terminate() #32 [ "funclet"(token %0) ]
  unreachable

"??1exception@std@@UEAA@XZ.exit":                 ; preds = %entry
  %1 = and i32 %should_call_delete, 1
  %2 = icmp eq i32 %1, 0
  br i1 %2, label %dtor.continue, label %dtor.call_delete

dtor.call_delete:                                 ; preds = %"??1exception@std@@UEAA@XZ.exit"
  tail call void @"??3@YAXPEAX_K@Z"(ptr noundef nonnull %this, i64 noundef 24) #33
  br label %dtor.continue

dtor.continue:                                    ; preds = %dtor.call_delete, %"??1exception@std@@UEAA@XZ.exit"
  ret ptr %this
}

declare dso_local void @__std_exception_copy(ptr noundef, ptr noundef) local_unnamed_addr #12

; Function Attrs: nobuiltin allocsize(0)
declare dso_local noundef nonnull ptr @"??2@YAPEAX_K@Z"(i64 noundef) local_unnamed_addr #13

; Function Attrs: inlinehint mustprogress nounwind uwtable
define linkonce_odr dso_local void @"??1?$basic_string@DU?$char_traits@D@std@@V?$allocator@D@2@@std@@QEAA@XZ"(ptr noundef nonnull align 8 dereferenceable(32) %this) unnamed_addr #3 comdat align 2 personality ptr @__CxxFrameHandler3 {
entry:
  %_Myres.i.i = getelementptr inbounds nuw i8, ptr %this, i64 24
  %0 = load i64, ptr %_Myres.i.i, align 8
  %cmp.i.i = icmp ugt i64 %0, 15
  br i1 %cmp.i.i, label %if.then.i, label %"?_Tidy_deallocate@?$basic_string@DU?$char_traits@D@std@@V?$allocator@D@2@@std@@AEAAXXZ.exit"

if.then.i:                                        ; preds = %entry
  %1 = load ptr, ptr %this, align 8
  %add.i.i = add i64 %0, 1
  %cmp.i.i.i.i = icmp ugt i64 %add.i.i, 4095
  br i1 %cmp.i.i.i.i, label %if.then.i.i.i.i, label %"?_Deallocate_for_capacity@?$basic_string@DU?$char_traits@D@std@@V?$allocator@D@2@@std@@CAXAEAV?$allocator@D@2@QEAD_K@Z.exit.i"

if.then.i.i.i.i:                                  ; preds = %if.then.i
  %arrayidx.i.i.i.i.i = getelementptr inbounds i8, ptr %1, i64 -8
  %2 = load i64, ptr %arrayidx.i.i.i.i.i, align 8
  %3 = ptrtoint ptr %1 to i64
  %reass.sub.i.i.i.i.i = add i64 %3, -8
  %4 = sub i64 %reass.sub.i.i.i.i.i, %2
  %or.cond.i.i.i.i.i = icmp ult i64 %4, 32
  br i1 %or.cond.i.i.i.i.i, label %"?_Adjust_manually_vector_aligned@std@@YAXAEAPEAXAEA_K@Z.exit.i.i.i.i", label %if.then.i.i.i.i.i

if.then.i.i.i.i.i:                                ; preds = %if.then.i.i.i.i
  tail call void @llvm.trap()
  unreachable

"?_Adjust_manually_vector_aligned@std@@YAXAEAPEAXAEA_K@Z.exit.i.i.i.i": ; preds = %if.then.i.i.i.i
  %add.i.i.i.i.i = add i64 %0, 40
  %5 = inttoptr i64 %2 to ptr
  br label %"?_Deallocate_for_capacity@?$basic_string@DU?$char_traits@D@std@@V?$allocator@D@2@@std@@CAXAEAV?$allocator@D@2@QEAD_K@Z.exit.i"

"?_Deallocate_for_capacity@?$basic_string@DU?$char_traits@D@std@@V?$allocator@D@2@@std@@CAXAEAV?$allocator@D@2@QEAD_K@Z.exit.i": ; preds = %"?_Adjust_manually_vector_aligned@std@@YAXAEAPEAXAEA_K@Z.exit.i.i.i.i", %if.then.i
  %_Bytes.addr.0.i.i.i.i = phi i64 [ %add.i.i.i.i.i, %"?_Adjust_manually_vector_aligned@std@@YAXAEAPEAXAEA_K@Z.exit.i.i.i.i" ], [ %add.i.i, %if.then.i ]
  %_Ptr.addr.0.i.i.i.i = phi ptr [ %5, %"?_Adjust_manually_vector_aligned@std@@YAXAEAPEAXAEA_K@Z.exit.i.i.i.i" ], [ %1, %if.then.i ]
  tail call void @"??3@YAXPEAX_K@Z"(ptr noundef %_Ptr.addr.0.i.i.i.i, i64 noundef %_Bytes.addr.0.i.i.i.i) #15
  br label %"?_Tidy_deallocate@?$basic_string@DU?$char_traits@D@std@@V?$allocator@D@2@@std@@AEAAXXZ.exit"

"?_Tidy_deallocate@?$basic_string@DU?$char_traits@D@std@@V?$allocator@D@2@@std@@AEAAXXZ.exit": ; preds = %entry, %"?_Deallocate_for_capacity@?$basic_string@DU?$char_traits@D@std@@V?$allocator@D@2@@std@@CAXAEAV?$allocator@D@2@QEAD_K@Z.exit.i"
  %_Mysize.i = getelementptr inbounds nuw i8, ptr %this, i64 16
  store i64 0, ptr %_Mysize.i, align 8
  store i64 15, ptr %_Myres.i.i, align 8
  store i8 0, ptr %this, align 8
  ret void
}

; Function Attrs: mustprogress uwtable
define linkonce_odr dso_local void @"?setstate@?$basic_ios@DU?$char_traits@D@std@@@std@@QEAAXH_N@Z"(ptr noundef nonnull align 8 dereferenceable(96) %this, i32 noundef %_State, i1 noundef zeroext %_Reraise) local_unnamed_addr #2 comdat align 2 {
entry:
  %tmp.i.i = alloca %"class.std::ios_base::failure", align 8
  %ref.tmp.i.i = alloca %"class.std::error_code", align 8
  %_Mystate.i = getelementptr inbounds nuw i8, ptr %this, i64 16
  %0 = load i32, ptr %_Mystate.i, align 8
  %or = or i32 %0, %_State
  %_Mystrbuf.i = getelementptr inbounds nuw i8, ptr %this, i64 72
  %1 = load ptr, ptr %_Mystrbuf.i, align 8
  %tobool.not.i = icmp eq ptr %1, null
  %cond.i = select i1 %tobool.not.i, i32 4, i32 0
  call void @llvm.lifetime.start.p0(ptr nonnull %tmp.i.i)
  %_State.masked.i = and i32 %or, 23
  %and.i.i = or i32 %cond.i, %_State.masked.i
  store i32 %and.i.i, ptr %_Mystate.i, align 8
  %_Except.i.i = getelementptr inbounds nuw i8, ptr %this, i64 20
  %2 = load i32, ptr %_Except.i.i, align 4
  %and2.i.i = and i32 %2, %and.i.i
  %tobool.not.i.i = icmp eq i32 %and2.i.i, 0
  br i1 %tobool.not.i.i, label %"?clear@?$basic_ios@DU?$char_traits@D@std@@@std@@QEAAXH_N@Z.exit", label %if.then.i.i

if.then.i.i:                                      ; preds = %entry
  br i1 %_Reraise, label %if.then3.i.i, label %if.end.i.i

if.then3.i.i:                                     ; preds = %if.then.i.i
  tail call void @_CxxThrowException(ptr null, ptr null) #30
  unreachable

if.end.i.i:                                       ; preds = %if.then.i.i
  %and4.i.i = and i32 %and2.i.i, 4
  %tobool5.not.i.i = icmp eq i32 %and4.i.i, 0
  %and7.i.i = and i32 %and2.i.i, 2
  %tobool8.not.i.i = icmp eq i32 %and7.i.i, 0
  %"??_C@_0BF@OOHOMBOF@ios_base?3?3eofbit?5set?$AA@.??_C@_0BG@FMKFHCIL@ios_base?3?3failbit?5set?$AA@.i.i" = select i1 %tobool8.not.i.i, ptr @"??_C@_0BF@OOHOMBOF@ios_base?3?3eofbit?5set?$AA@", ptr @"??_C@_0BG@FMKFHCIL@ios_base?3?3failbit?5set?$AA@"
  %_Msg.0.i.i = select i1 %tobool5.not.i.i, ptr %"??_C@_0BF@OOHOMBOF@ios_base?3?3eofbit?5set?$AA@.??_C@_0BG@FMKFHCIL@ios_base?3?3failbit?5set?$AA@.i.i", ptr @"??_C@_0BF@PHHKMMFD@ios_base?3?3badbit?5set?$AA@"
  call void @llvm.lifetime.start.p0(ptr nonnull %ref.tmp.i.i) #15
  call void @"?make_error_code@std@@YA?AVerror_code@1@W4io_errc@1@@Z"(ptr dead_on_unwind nonnull writable sret(%"class.std::error_code") align 8 %ref.tmp.i.i, i32 noundef 1) #15
  %call.i.i = call noundef ptr @"??0failure@ios_base@std@@QEAA@PEBDAEBVerror_code@2@@Z"(ptr noundef nonnull align 8 dereferenceable(40) %tmp.i.i, ptr noundef nonnull %_Msg.0.i.i, ptr noundef nonnull align 8 dereferenceable(16) %ref.tmp.i.i)
  call void @_CxxThrowException(ptr nonnull %tmp.i.i, ptr nonnull @"_TI5?AVfailure@ios_base@std@@") #30
  unreachable

"?clear@?$basic_ios@DU?$char_traits@D@std@@@std@@QEAAXH_N@Z.exit": ; preds = %entry
  call void @llvm.lifetime.end.p0(ptr nonnull %tmp.i.i)
  ret void
}

; Function Attrs: mustprogress nounwind uwtable
define linkonce_odr dso_local void @"??1sentry@?$basic_ostream@DU?$char_traits@D@std@@@std@@QEAA@XZ"(ptr noundef nonnull align 8 dereferenceable(16) %this) unnamed_addr #10 comdat align 2 personality ptr @__CxxFrameHandler3 {
entry:
  %call = tail call noundef zeroext i1 @"?uncaught_exception@std@@YA_NXZ"() #15
  br i1 %call, label %if.end, label %if.then

if.then:                                          ; preds = %entry
  %0 = load ptr, ptr %this, align 8, !nonnull !33, !align !34
  tail call void @"?_Osfx@?$basic_ostream@DU?$char_traits@D@std@@@std@@QEAAXXZ"(ptr noundef nonnull align 8 dereferenceable(8) %0) #15
  br label %if.end

if.end:                                           ; preds = %if.then, %entry
  %1 = load ptr, ptr %this, align 8, !nonnull !33, !align !34
  %vbtable.i = load ptr, ptr %1, align 8
  %2 = getelementptr inbounds nuw i8, ptr %vbtable.i, i64 4
  %vbase_offs.i = load i32, ptr %2, align 4
  %3 = sext i32 %vbase_offs.i to i64
  %add.ptr.i = getelementptr inbounds i8, ptr %1, i64 %3
  %_Mystrbuf.i.i = getelementptr inbounds nuw i8, ptr %add.ptr.i, i64 72
  %4 = load ptr, ptr %_Mystrbuf.i.i, align 8
  %tobool.not.i = icmp eq ptr %4, null
  br i1 %tobool.not.i, label %"??1_Sentry_base@?$basic_ostream@DU?$char_traits@D@std@@@std@@QEAA@XZ.exit", label %if.then.i

if.then.i:                                        ; preds = %if.end
  %vtable.i = load ptr, ptr %4, align 8
  %vfn.i = getelementptr inbounds nuw i8, ptr %vtable.i, i64 16
  %5 = load ptr, ptr %vfn.i, align 8
  invoke void %5(ptr noundef nonnull align 8 dereferenceable(104) %4)
          to label %"??1_Sentry_base@?$basic_ostream@DU?$char_traits@D@std@@@std@@QEAA@XZ.exit" unwind label %terminate.i

terminate.i:                                      ; preds = %if.then.i
  %6 = cleanuppad within none []
  call void @__std_terminate() #32 [ "funclet"(token %6) ]
  unreachable

"??1_Sentry_base@?$basic_ostream@DU?$char_traits@D@std@@@std@@QEAA@XZ.exit": ; preds = %if.end, %if.then.i
  ret void
}

; Function Attrs: mustprogress nocallback nofree nounwind willreturn memory(argmem: read)
declare dso_local i64 @strlen(ptr noundef captures(none)) local_unnamed_addr #14

; Function Attrs: mustprogress uwtable
define linkonce_odr dso_local noundef nonnull align 8 dereferenceable(8) ptr @"?flush@?$basic_ostream@DU?$char_traits@D@std@@@std@@QEAAAEAV12@XZ"(ptr noundef nonnull align 8 dereferenceable(8) %this) local_unnamed_addr #2 comdat align 2 personality ptr @__CxxFrameHandler3 {
entry:
  %agg.tmp.i = alloca %"class.std::error_code", align 8
  %tmp.i.i.i = alloca %"class.std::ios_base::failure", align 8
  %ref.tmp.i.i.i = alloca %"class.std::error_code", align 8
  %_Ok = alloca %"class.std::basic_ostream<char>::sentry", align 8
  %vbtable = load ptr, ptr %this, align 8
  %0 = getelementptr inbounds nuw i8, ptr %vbtable, i64 4
  %vbase_offs = load i32, ptr %0, align 4
  %1 = sext i32 %vbase_offs to i64
  %add.ptr = getelementptr inbounds i8, ptr %this, i64 %1
  %_Mystrbuf.i = getelementptr inbounds nuw i8, ptr %add.ptr, i64 72
  %2 = load ptr, ptr %_Mystrbuf.i, align 8
  %tobool.not = icmp eq ptr %2, null
  br i1 %tobool.not, label %if.end21, label %"??0_Sentry_base@?$basic_ostream@DU?$char_traits@D@std@@@std@@QEAA@AEAV12@@Z.exit.i"

"??0_Sentry_base@?$basic_ostream@DU?$char_traits@D@std@@@std@@QEAA@AEAV12@@Z.exit.i": ; preds = %entry
  call void @llvm.lifetime.start.p0(ptr nonnull %_Ok) #15
  store ptr %this, ptr %_Ok, align 8
  %vtable.i.i = load ptr, ptr %2, align 8
  %vfn.i.i = getelementptr inbounds nuw i8, ptr %vtable.i.i, i64 8
  %3 = load ptr, ptr %vfn.i.i, align 8
  tail call void %3(ptr noundef nonnull align 8 dereferenceable(104) %2)
  %vbtable.i.pre = load ptr, ptr %this, align 8
  %.phi.trans.insert = getelementptr inbounds nuw i8, ptr %vbtable.i.pre, i64 4
  %vbase_offs.i.pre = load i32, ptr %.phi.trans.insert, align 4
  %.phi.trans.insert43 = sext i32 %vbase_offs.i.pre to i64
  %add.ptr.i.phi.trans.insert = getelementptr inbounds i8, ptr %this, i64 %.phi.trans.insert43
  %_Mystate.i.i.i.phi.trans.insert = getelementptr inbounds nuw i8, ptr %add.ptr.i.phi.trans.insert, i64 16
